
baka_main.elf:     file format elf32-littlearm

Sections:
Idx Name          Size      VMA       LMA       File off  Algn
  0 .isr_vector   000000c0  08000000  08000000  00010000  2**0
                  CONTENTS, ALLOC, LOAD, READONLY, DATA
  1 .text         000035f0  080000c0  080000c0  000100c0  2**2
                  CONTENTS, ALLOC, LOAD, READONLY, CODE
  2 .rodata       00000068  080036b0  080036b0  000136b0  2**0
                  CONTENTS, ALLOC, LOAD, READONLY, DATA
  3 .ARM.extab    00000000  08003718  08003718  0002017c  2**0
                  CONTENTS
  4 .ARM          00000008  08003718  08003718  00013718  2**2
                  CONTENTS, ALLOC, LOAD, READONLY, DATA
  5 .preinit_array 00000000  08003720  08003720  0002017c  2**0
                  CONTENTS, ALLOC, LOAD, DATA
  6 .init_array   00000004  08003720  08003720  00013720  2**2
                  CONTENTS, ALLOC, LOAD, DATA
  7 .fini_array   00000004  08003724  08003724  00013724  2**2
                  CONTENTS, ALLOC, LOAD, DATA
  8 .data         0000017c  20000000  08003728  00020000  2**2
                  CONTENTS, ALLOC, LOAD, DATA
  9 .bss          000011fc  2000017c  080038a4  0002017c  2**2
                  ALLOC
 10 ._user_heap_stack 00000600  20001378  080038a4  00021378  2**0
                  ALLOC
 11 .ARM.attributes 00000028  00000000  00000000  0002017c  2**0
                  CONTENTS, READONLY
 12 .comment      00000043  00000000  00000000  000201a4  2**0
                  CONTENTS, READONLY
 13 .debug_frame  000000dc  00000000  00000000  000201e8  2**2
                  CONTENTS, READONLY, DEBUGGING, OCTETS

Disassembly of section .text:

080000c0 <__do_global_dtors_aux>:
 80000c0:	b510      	push	{r4, lr}
 80000c2:	4c06      	ldr	r4, [pc, #24]	; (80000dc <__do_global_dtors_aux+0x1c>)
 80000c4:	7823      	ldrb	r3, [r4, #0]
 80000c6:	2b00      	cmp	r3, #0
 80000c8:	d107      	bne.n	80000da <__do_global_dtors_aux+0x1a>
 80000ca:	4b05      	ldr	r3, [pc, #20]	; (80000e0 <__do_global_dtors_aux+0x20>)
 80000cc:	2b00      	cmp	r3, #0
 80000ce:	d002      	beq.n	80000d6 <__do_global_dtors_aux+0x16>
 80000d0:	4804      	ldr	r0, [pc, #16]	; (80000e4 <__do_global_dtors_aux+0x24>)
 80000d2:	e000      	b.n	80000d6 <__do_global_dtors_aux+0x16>
 80000d4:	bf00      	nop
 80000d6:	2301      	movs	r3, #1
 80000d8:	7023      	strb	r3, [r4, #0]
 80000da:	bd10      	pop	{r4, pc}
 80000dc:	2000017c 	.word	0x2000017c
 80000e0:	00000000 	.word	0x00000000
 80000e4:	08003698 	.word	0x08003698

080000e8 <frame_dummy>:
 80000e8:	4b04      	ldr	r3, [pc, #16]	; (80000fc <frame_dummy+0x14>)
 80000ea:	b510      	push	{r4, lr}
 80000ec:	2b00      	cmp	r3, #0
 80000ee:	d003      	beq.n	80000f8 <frame_dummy+0x10>
 80000f0:	4903      	ldr	r1, [pc, #12]	; (8000100 <frame_dummy+0x18>)
 80000f2:	4804      	ldr	r0, [pc, #16]	; (8000104 <frame_dummy+0x1c>)
 80000f4:	e000      	b.n	80000f8 <frame_dummy+0x10>
 80000f6:	bf00      	nop
 80000f8:	bd10      	pop	{r4, pc}
 80000fa:	46c0      	nop			; (mov r8, r8)
 80000fc:	00000000 	.word	0x00000000
 8000100:	20000180 	.word	0x20000180
 8000104:	08003698 	.word	0x08003698

08000108 <__gnu_thumb1_case_uqi>:
 8000108:	b402      	push	{r1}
 800010a:	4671      	mov	r1, lr
 800010c:	0849      	lsrs	r1, r1, #1
 800010e:	0049      	lsls	r1, r1, #1
 8000110:	5c09      	ldrb	r1, [r1, r0]
 8000112:	0049      	lsls	r1, r1, #1
 8000114:	448e      	add	lr, r1
 8000116:	bc02      	pop	{r1}
 8000118:	4770      	bx	lr
 800011a:	46c0      	nop			; (mov r8, r8)

0800011c <__gnu_thumb1_case_uhi>:
 800011c:	b403      	push	{r0, r1}
 800011e:	4671      	mov	r1, lr
 8000120:	0849      	lsrs	r1, r1, #1
 8000122:	0040      	lsls	r0, r0, #1
 8000124:	0049      	lsls	r1, r1, #1
 8000126:	5a09      	ldrh	r1, [r1, r0]
 8000128:	0049      	lsls	r1, r1, #1
 800012a:	448e      	add	lr, r1
 800012c:	bc03      	pop	{r0, r1}
 800012e:	4770      	bx	lr

08000130 <__udivsi3>:
 8000130:	2200      	movs	r2, #0
 8000132:	0843      	lsrs	r3, r0, #1
 8000134:	428b      	cmp	r3, r1
 8000136:	d374      	bcc.n	8000222 <__udivsi3+0xf2>
 8000138:	0903      	lsrs	r3, r0, #4
 800013a:	428b      	cmp	r3, r1
 800013c:	d35f      	bcc.n	80001fe <__udivsi3+0xce>
 800013e:	0a03      	lsrs	r3, r0, #8
 8000140:	428b      	cmp	r3, r1
 8000142:	d344      	bcc.n	80001ce <__udivsi3+0x9e>
 8000144:	0b03      	lsrs	r3, r0, #12
 8000146:	428b      	cmp	r3, r1
 8000148:	d328      	bcc.n	800019c <__udivsi3+0x6c>
 800014a:	0c03      	lsrs	r3, r0, #16
 800014c:	428b      	cmp	r3, r1
 800014e:	d30d      	bcc.n	800016c <__udivsi3+0x3c>
 8000150:	22ff      	movs	r2, #255	; 0xff
 8000152:	0209      	lsls	r1, r1, #8
 8000154:	ba12      	rev	r2, r2
 8000156:	0c03      	lsrs	r3, r0, #16
 8000158:	428b      	cmp	r3, r1
 800015a:	d302      	bcc.n	8000162 <__udivsi3+0x32>
 800015c:	1212      	asrs	r2, r2, #8
 800015e:	0209      	lsls	r1, r1, #8
 8000160:	d065      	beq.n	800022e <__udivsi3+0xfe>
 8000162:	0b03      	lsrs	r3, r0, #12
 8000164:	428b      	cmp	r3, r1
 8000166:	d319      	bcc.n	800019c <__udivsi3+0x6c>
 8000168:	e000      	b.n	800016c <__udivsi3+0x3c>
 800016a:	0a09      	lsrs	r1, r1, #8
 800016c:	0bc3      	lsrs	r3, r0, #15
 800016e:	428b      	cmp	r3, r1
 8000170:	d301      	bcc.n	8000176 <__udivsi3+0x46>
 8000172:	03cb      	lsls	r3, r1, #15
 8000174:	1ac0      	subs	r0, r0, r3
 8000176:	4152      	adcs	r2, r2
 8000178:	0b83      	lsrs	r3, r0, #14
 800017a:	428b      	cmp	r3, r1
 800017c:	d301      	bcc.n	8000182 <__udivsi3+0x52>
 800017e:	038b      	lsls	r3, r1, #14
 8000180:	1ac0      	subs	r0, r0, r3
 8000182:	4152      	adcs	r2, r2
 8000184:	0b43      	lsrs	r3, r0, #13
 8000186:	428b      	cmp	r3, r1
 8000188:	d301      	bcc.n	800018e <__udivsi3+0x5e>
 800018a:	034b      	lsls	r3, r1, #13
 800018c:	1ac0      	subs	r0, r0, r3
 800018e:	4152      	adcs	r2, r2
 8000190:	0b03      	lsrs	r3, r0, #12
 8000192:	428b      	cmp	r3, r1
 8000194:	d301      	bcc.n	800019a <__udivsi3+0x6a>
 8000196:	030b      	lsls	r3, r1, #12
 8000198:	1ac0      	subs	r0, r0, r3
 800019a:	4152      	adcs	r2, r2
 800019c:	0ac3      	lsrs	r3, r0, #11
 800019e:	428b      	cmp	r3, r1
 80001a0:	d301      	bcc.n	80001a6 <__udivsi3+0x76>
 80001a2:	02cb      	lsls	r3, r1, #11
 80001a4:	1ac0      	subs	r0, r0, r3
 80001a6:	4152      	adcs	r2, r2
 80001a8:	0a83      	lsrs	r3, r0, #10
 80001aa:	428b      	cmp	r3, r1
 80001ac:	d301      	bcc.n	80001b2 <__udivsi3+0x82>
 80001ae:	028b      	lsls	r3, r1, #10
 80001b0:	1ac0      	subs	r0, r0, r3
 80001b2:	4152      	adcs	r2, r2
 80001b4:	0a43      	lsrs	r3, r0, #9
 80001b6:	428b      	cmp	r3, r1
 80001b8:	d301      	bcc.n	80001be <__udivsi3+0x8e>
 80001ba:	024b      	lsls	r3, r1, #9
 80001bc:	1ac0      	subs	r0, r0, r3
 80001be:	4152      	adcs	r2, r2
 80001c0:	0a03      	lsrs	r3, r0, #8
 80001c2:	428b      	cmp	r3, r1
 80001c4:	d301      	bcc.n	80001ca <__udivsi3+0x9a>
 80001c6:	020b      	lsls	r3, r1, #8
 80001c8:	1ac0      	subs	r0, r0, r3
 80001ca:	4152      	adcs	r2, r2
 80001cc:	d2cd      	bcs.n	800016a <__udivsi3+0x3a>
 80001ce:	09c3      	lsrs	r3, r0, #7
 80001d0:	428b      	cmp	r3, r1
 80001d2:	d301      	bcc.n	80001d8 <__udivsi3+0xa8>
 80001d4:	01cb      	lsls	r3, r1, #7
 80001d6:	1ac0      	subs	r0, r0, r3
 80001d8:	4152      	adcs	r2, r2
 80001da:	0983      	lsrs	r3, r0, #6
 80001dc:	428b      	cmp	r3, r1
 80001de:	d301      	bcc.n	80001e4 <__udivsi3+0xb4>
 80001e0:	018b      	lsls	r3, r1, #6
 80001e2:	1ac0      	subs	r0, r0, r3
 80001e4:	4152      	adcs	r2, r2
 80001e6:	0943      	lsrs	r3, r0, #5
 80001e8:	428b      	cmp	r3, r1
 80001ea:	d301      	bcc.n	80001f0 <__udivsi3+0xc0>
 80001ec:	014b      	lsls	r3, r1, #5
 80001ee:	1ac0      	subs	r0, r0, r3
 80001f0:	4152      	adcs	r2, r2
 80001f2:	0903      	lsrs	r3, r0, #4
 80001f4:	428b      	cmp	r3, r1
 80001f6:	d301      	bcc.n	80001fc <__udivsi3+0xcc>
 80001f8:	010b      	lsls	r3, r1, #4
 80001fa:	1ac0      	subs	r0, r0, r3
 80001fc:	4152      	adcs	r2, r2
 80001fe:	08c3      	lsrs	r3, r0, #3
 8000200:	428b      	cmp	r3, r1
 8000202:	d301      	bcc.n	8000208 <__udivsi3+0xd8>
 8000204:	00cb      	lsls	r3, r1, #3
 8000206:	1ac0      	subs	r0, r0, r3
 8000208:	4152      	adcs	r2, r2
 800020a:	0883      	lsrs	r3, r0, #2
 800020c:	428b      	cmp	r3, r1
 800020e:	d301      	bcc.n	8000214 <__udivsi3+0xe4>
 8000210:	008b      	lsls	r3, r1, #2
 8000212:	1ac0      	subs	r0, r0, r3
 8000214:	4152      	adcs	r2, r2
 8000216:	0843      	lsrs	r3, r0, #1
 8000218:	428b      	cmp	r3, r1
 800021a:	d301      	bcc.n	8000220 <__udivsi3+0xf0>
 800021c:	004b      	lsls	r3, r1, #1
 800021e:	1ac0      	subs	r0, r0, r3
 8000220:	4152      	adcs	r2, r2
 8000222:	1a41      	subs	r1, r0, r1
 8000224:	d200      	bcs.n	8000228 <__udivsi3+0xf8>
 8000226:	4601      	mov	r1, r0
 8000228:	4152      	adcs	r2, r2
 800022a:	4610      	mov	r0, r2
 800022c:	4770      	bx	lr
 800022e:	e7ff      	b.n	8000230 <__udivsi3+0x100>
 8000230:	b501      	push	{r0, lr}
 8000232:	2000      	movs	r0, #0
 8000234:	f000 f806 	bl	8000244 <__aeabi_idiv0>
 8000238:	bd02      	pop	{r1, pc}
 800023a:	46c0      	nop			; (mov r8, r8)

0800023c <__aeabi_uidivmod>:
 800023c:	2900      	cmp	r1, #0
 800023e:	d0f7      	beq.n	8000230 <__udivsi3+0x100>
 8000240:	e776      	b.n	8000130 <__udivsi3>
 8000242:	4770      	bx	lr

08000244 <__aeabi_idiv0>:
 8000244:	4770      	bx	lr
 8000246:	46c0      	nop			; (mov r8, r8)

08000248 <__aeabi_uldivmod>:
 8000248:	2b00      	cmp	r3, #0
 800024a:	d111      	bne.n	8000270 <__aeabi_uldivmod+0x28>
 800024c:	2a00      	cmp	r2, #0
 800024e:	d10f      	bne.n	8000270 <__aeabi_uldivmod+0x28>
 8000250:	2900      	cmp	r1, #0
 8000252:	d100      	bne.n	8000256 <__aeabi_uldivmod+0xe>
 8000254:	2800      	cmp	r0, #0
 8000256:	d002      	beq.n	800025e <__aeabi_uldivmod+0x16>
 8000258:	2100      	movs	r1, #0
 800025a:	43c9      	mvns	r1, r1
 800025c:	0008      	movs	r0, r1
 800025e:	b407      	push	{r0, r1, r2}
 8000260:	4802      	ldr	r0, [pc, #8]	; (800026c <__aeabi_uldivmod+0x24>)
 8000262:	a102      	add	r1, pc, #8	; (adr r1, 800026c <__aeabi_uldivmod+0x24>)
 8000264:	1840      	adds	r0, r0, r1
 8000266:	9002      	str	r0, [sp, #8]
 8000268:	bd03      	pop	{r0, r1, pc}
 800026a:	46c0      	nop			; (mov r8, r8)
 800026c:	ffffffd9 	.word	0xffffffd9
 8000270:	b403      	push	{r0, r1}
 8000272:	4668      	mov	r0, sp
 8000274:	b501      	push	{r0, lr}
 8000276:	9802      	ldr	r0, [sp, #8]
 8000278:	f000 f834 	bl	80002e4 <__udivmoddi4>
 800027c:	9b01      	ldr	r3, [sp, #4]
 800027e:	469e      	mov	lr, r3
 8000280:	b002      	add	sp, #8
 8000282:	bc0c      	pop	{r2, r3}
 8000284:	4770      	bx	lr
 8000286:	46c0      	nop			; (mov r8, r8)

08000288 <__aeabi_lmul>:
 8000288:	b5f0      	push	{r4, r5, r6, r7, lr}
 800028a:	46ce      	mov	lr, r9
 800028c:	4699      	mov	r9, r3
 800028e:	0c03      	lsrs	r3, r0, #16
 8000290:	469c      	mov	ip, r3
 8000292:	0413      	lsls	r3, r2, #16
 8000294:	4647      	mov	r7, r8
 8000296:	0c1b      	lsrs	r3, r3, #16
 8000298:	001d      	movs	r5, r3
 800029a:	000e      	movs	r6, r1
 800029c:	4661      	mov	r1, ip
 800029e:	0404      	lsls	r4, r0, #16
 80002a0:	0c24      	lsrs	r4, r4, #16
 80002a2:	b580      	push	{r7, lr}
 80002a4:	0007      	movs	r7, r0
 80002a6:	0c10      	lsrs	r0, r2, #16
 80002a8:	434b      	muls	r3, r1
 80002aa:	4365      	muls	r5, r4
 80002ac:	4341      	muls	r1, r0
 80002ae:	4360      	muls	r0, r4
 80002b0:	0c2c      	lsrs	r4, r5, #16
 80002b2:	18c0      	adds	r0, r0, r3
 80002b4:	1820      	adds	r0, r4, r0
 80002b6:	468c      	mov	ip, r1
 80002b8:	4283      	cmp	r3, r0
 80002ba:	d903      	bls.n	80002c4 <__aeabi_lmul+0x3c>
 80002bc:	2380      	movs	r3, #128	; 0x80
 80002be:	025b      	lsls	r3, r3, #9
 80002c0:	4698      	mov	r8, r3
 80002c2:	44c4      	add	ip, r8
 80002c4:	4649      	mov	r1, r9
 80002c6:	4379      	muls	r1, r7
 80002c8:	4356      	muls	r6, r2
 80002ca:	0c03      	lsrs	r3, r0, #16
 80002cc:	042d      	lsls	r5, r5, #16
 80002ce:	0c2d      	lsrs	r5, r5, #16
 80002d0:	1989      	adds	r1, r1, r6
 80002d2:	4463      	add	r3, ip
 80002d4:	0400      	lsls	r0, r0, #16
 80002d6:	1940      	adds	r0, r0, r5
 80002d8:	18c9      	adds	r1, r1, r3
 80002da:	bcc0      	pop	{r6, r7}
 80002dc:	46b9      	mov	r9, r7
 80002de:	46b0      	mov	r8, r6
 80002e0:	bdf0      	pop	{r4, r5, r6, r7, pc}
 80002e2:	46c0      	nop			; (mov r8, r8)

080002e4 <__udivmoddi4>:
 80002e4:	b5f0      	push	{r4, r5, r6, r7, lr}
 80002e6:	4657      	mov	r7, sl
 80002e8:	464e      	mov	r6, r9
 80002ea:	4645      	mov	r5, r8
 80002ec:	46de      	mov	lr, fp
 80002ee:	b5e0      	push	{r5, r6, r7, lr}
 80002f0:	0004      	movs	r4, r0
 80002f2:	000d      	movs	r5, r1
 80002f4:	4692      	mov	sl, r2
 80002f6:	4699      	mov	r9, r3
 80002f8:	b083      	sub	sp, #12
 80002fa:	428b      	cmp	r3, r1
 80002fc:	d830      	bhi.n	8000360 <__udivmoddi4+0x7c>
 80002fe:	d02d      	beq.n	800035c <__udivmoddi4+0x78>
 8000300:	4649      	mov	r1, r9
 8000302:	4650      	mov	r0, sl
 8000304:	f000 f8ba 	bl	800047c <__clzdi2>
 8000308:	0029      	movs	r1, r5
 800030a:	0006      	movs	r6, r0
 800030c:	0020      	movs	r0, r4
 800030e:	f000 f8b5 	bl	800047c <__clzdi2>
 8000312:	1a33      	subs	r3, r6, r0
 8000314:	4698      	mov	r8, r3
 8000316:	3b20      	subs	r3, #32
 8000318:	d434      	bmi.n	8000384 <__udivmoddi4+0xa0>
 800031a:	469b      	mov	fp, r3
 800031c:	4653      	mov	r3, sl
 800031e:	465a      	mov	r2, fp
 8000320:	4093      	lsls	r3, r2
 8000322:	4642      	mov	r2, r8
 8000324:	001f      	movs	r7, r3
 8000326:	4653      	mov	r3, sl
 8000328:	4093      	lsls	r3, r2
 800032a:	001e      	movs	r6, r3
 800032c:	42af      	cmp	r7, r5
 800032e:	d83b      	bhi.n	80003a8 <__udivmoddi4+0xc4>
 8000330:	42af      	cmp	r7, r5
 8000332:	d100      	bne.n	8000336 <__udivmoddi4+0x52>
 8000334:	e079      	b.n	800042a <__udivmoddi4+0x146>
 8000336:	465b      	mov	r3, fp
 8000338:	1ba4      	subs	r4, r4, r6
 800033a:	41bd      	sbcs	r5, r7
 800033c:	2b00      	cmp	r3, #0
 800033e:	da00      	bge.n	8000342 <__udivmoddi4+0x5e>
 8000340:	e076      	b.n	8000430 <__udivmoddi4+0x14c>
 8000342:	2200      	movs	r2, #0
 8000344:	2300      	movs	r3, #0
 8000346:	9200      	str	r2, [sp, #0]
 8000348:	9301      	str	r3, [sp, #4]
 800034a:	2301      	movs	r3, #1
 800034c:	465a      	mov	r2, fp
 800034e:	4093      	lsls	r3, r2
 8000350:	9301      	str	r3, [sp, #4]
 8000352:	2301      	movs	r3, #1
 8000354:	4642      	mov	r2, r8
 8000356:	4093      	lsls	r3, r2
 8000358:	9300      	str	r3, [sp, #0]
 800035a:	e029      	b.n	80003b0 <__udivmoddi4+0xcc>
 800035c:	4282      	cmp	r2, r0
 800035e:	d9cf      	bls.n	8000300 <__udivmoddi4+0x1c>
 8000360:	2200      	movs	r2, #0
 8000362:	2300      	movs	r3, #0
 8000364:	9200      	str	r2, [sp, #0]
 8000366:	9301      	str	r3, [sp, #4]
 8000368:	9b0c      	ldr	r3, [sp, #48]	; 0x30
 800036a:	2b00      	cmp	r3, #0
 800036c:	d001      	beq.n	8000372 <__udivmoddi4+0x8e>
 800036e:	601c      	str	r4, [r3, #0]
 8000370:	605d      	str	r5, [r3, #4]
 8000372:	9800      	ldr	r0, [sp, #0]
 8000374:	9901      	ldr	r1, [sp, #4]
 8000376:	b003      	add	sp, #12
 8000378:	bcf0      	pop	{r4, r5, r6, r7}
 800037a:	46bb      	mov	fp, r7
 800037c:	46b2      	mov	sl, r6
 800037e:	46a9      	mov	r9, r5
 8000380:	46a0      	mov	r8, r4
 8000382:	bdf0      	pop	{r4, r5, r6, r7, pc}
 8000384:	4642      	mov	r2, r8
 8000386:	469b      	mov	fp, r3
 8000388:	2320      	movs	r3, #32
 800038a:	1a9b      	subs	r3, r3, r2
 800038c:	4652      	mov	r2, sl
 800038e:	40da      	lsrs	r2, r3
 8000390:	4641      	mov	r1, r8
 8000392:	0013      	movs	r3, r2
 8000394:	464a      	mov	r2, r9
 8000396:	408a      	lsls	r2, r1
 8000398:	0017      	movs	r7, r2
 800039a:	4642      	mov	r2, r8
 800039c:	431f      	orrs	r7, r3
 800039e:	4653      	mov	r3, sl
 80003a0:	4093      	lsls	r3, r2
 80003a2:	001e      	movs	r6, r3
 80003a4:	42af      	cmp	r7, r5
 80003a6:	d9c3      	bls.n	8000330 <__udivmoddi4+0x4c>
 80003a8:	2200      	movs	r2, #0
 80003aa:	2300      	movs	r3, #0
 80003ac:	9200      	str	r2, [sp, #0]
 80003ae:	9301      	str	r3, [sp, #4]
 80003b0:	4643      	mov	r3, r8
 80003b2:	2b00      	cmp	r3, #0
 80003b4:	d0d8      	beq.n	8000368 <__udivmoddi4+0x84>
 80003b6:	07fb      	lsls	r3, r7, #31
 80003b8:	0872      	lsrs	r2, r6, #1
 80003ba:	431a      	orrs	r2, r3
 80003bc:	4646      	mov	r6, r8
 80003be:	087b      	lsrs	r3, r7, #1
 80003c0:	e00e      	b.n	80003e0 <__udivmoddi4+0xfc>
 80003c2:	42ab      	cmp	r3, r5
 80003c4:	d101      	bne.n	80003ca <__udivmoddi4+0xe6>
 80003c6:	42a2      	cmp	r2, r4
 80003c8:	d80c      	bhi.n	80003e4 <__udivmoddi4+0x100>
 80003ca:	1aa4      	subs	r4, r4, r2
 80003cc:	419d      	sbcs	r5, r3
 80003ce:	2001      	movs	r0, #1
 80003d0:	1924      	adds	r4, r4, r4
 80003d2:	416d      	adcs	r5, r5
 80003d4:	2100      	movs	r1, #0
 80003d6:	3e01      	subs	r6, #1
 80003d8:	1824      	adds	r4, r4, r0
 80003da:	414d      	adcs	r5, r1
 80003dc:	2e00      	cmp	r6, #0
 80003de:	d006      	beq.n	80003ee <__udivmoddi4+0x10a>
 80003e0:	42ab      	cmp	r3, r5
 80003e2:	d9ee      	bls.n	80003c2 <__udivmoddi4+0xde>
 80003e4:	3e01      	subs	r6, #1
 80003e6:	1924      	adds	r4, r4, r4
 80003e8:	416d      	adcs	r5, r5
 80003ea:	2e00      	cmp	r6, #0
 80003ec:	d1f8      	bne.n	80003e0 <__udivmoddi4+0xfc>
 80003ee:	9800      	ldr	r0, [sp, #0]
 80003f0:	9901      	ldr	r1, [sp, #4]
 80003f2:	465b      	mov	r3, fp
 80003f4:	1900      	adds	r0, r0, r4
 80003f6:	4169      	adcs	r1, r5
 80003f8:	2b00      	cmp	r3, #0
 80003fa:	db24      	blt.n	8000446 <__udivmoddi4+0x162>
 80003fc:	002b      	movs	r3, r5
 80003fe:	465a      	mov	r2, fp
 8000400:	4644      	mov	r4, r8
 8000402:	40d3      	lsrs	r3, r2
 8000404:	002a      	movs	r2, r5
 8000406:	40e2      	lsrs	r2, r4
 8000408:	001c      	movs	r4, r3
 800040a:	465b      	mov	r3, fp
 800040c:	0015      	movs	r5, r2
 800040e:	2b00      	cmp	r3, #0
 8000410:	db2a      	blt.n	8000468 <__udivmoddi4+0x184>
 8000412:	0026      	movs	r6, r4
 8000414:	409e      	lsls	r6, r3
 8000416:	0033      	movs	r3, r6
 8000418:	0026      	movs	r6, r4
 800041a:	4647      	mov	r7, r8
 800041c:	40be      	lsls	r6, r7
 800041e:	0032      	movs	r2, r6
 8000420:	1a80      	subs	r0, r0, r2
 8000422:	4199      	sbcs	r1, r3
 8000424:	9000      	str	r0, [sp, #0]
 8000426:	9101      	str	r1, [sp, #4]
 8000428:	e79e      	b.n	8000368 <__udivmoddi4+0x84>
 800042a:	42a3      	cmp	r3, r4
 800042c:	d8bc      	bhi.n	80003a8 <__udivmoddi4+0xc4>
 800042e:	e782      	b.n	8000336 <__udivmoddi4+0x52>
 8000430:	4642      	mov	r2, r8
 8000432:	2320      	movs	r3, #32
 8000434:	2100      	movs	r1, #0
 8000436:	1a9b      	subs	r3, r3, r2
 8000438:	2200      	movs	r2, #0
 800043a:	9100      	str	r1, [sp, #0]
 800043c:	9201      	str	r2, [sp, #4]
 800043e:	2201      	movs	r2, #1
 8000440:	40da      	lsrs	r2, r3
 8000442:	9201      	str	r2, [sp, #4]
 8000444:	e785      	b.n	8000352 <__udivmoddi4+0x6e>
 8000446:	4642      	mov	r2, r8
 8000448:	2320      	movs	r3, #32
 800044a:	1a9b      	subs	r3, r3, r2
 800044c:	002a      	movs	r2, r5
 800044e:	4646      	mov	r6, r8
 8000450:	409a      	lsls	r2, r3
 8000452:	0023      	movs	r3, r4
 8000454:	40f3      	lsrs	r3, r6
 8000456:	4644      	mov	r4, r8
 8000458:	4313      	orrs	r3, r2
 800045a:	002a      	movs	r2, r5
 800045c:	40e2      	lsrs	r2, r4
 800045e:	001c      	movs	r4, r3
 8000460:	465b      	mov	r3, fp
 8000462:	0015      	movs	r5, r2
 8000464:	2b00      	cmp	r3, #0
 8000466:	dad4      	bge.n	8000412 <__udivmoddi4+0x12e>
 8000468:	4642      	mov	r2, r8
 800046a:	002f      	movs	r7, r5
 800046c:	2320      	movs	r3, #32
 800046e:	0026      	movs	r6, r4
 8000470:	4097      	lsls	r7, r2
 8000472:	1a9b      	subs	r3, r3, r2
 8000474:	40de      	lsrs	r6, r3
 8000476:	003b      	movs	r3, r7
 8000478:	4333      	orrs	r3, r6
 800047a:	e7cd      	b.n	8000418 <__udivmoddi4+0x134>

0800047c <__clzdi2>:
 800047c:	b510      	push	{r4, lr}
 800047e:	2900      	cmp	r1, #0
 8000480:	d103      	bne.n	800048a <__clzdi2+0xe>
 8000482:	f000 f807 	bl	8000494 <__clzsi2>
 8000486:	3020      	adds	r0, #32
 8000488:	e002      	b.n	8000490 <__clzdi2+0x14>
 800048a:	0008      	movs	r0, r1
 800048c:	f000 f802 	bl	8000494 <__clzsi2>
 8000490:	bd10      	pop	{r4, pc}
 8000492:	46c0      	nop			; (mov r8, r8)

08000494 <__clzsi2>:
 8000494:	211c      	movs	r1, #28
 8000496:	2301      	movs	r3, #1
 8000498:	041b      	lsls	r3, r3, #16
 800049a:	4298      	cmp	r0, r3
 800049c:	d301      	bcc.n	80004a2 <__clzsi2+0xe>
 800049e:	0c00      	lsrs	r0, r0, #16
 80004a0:	3910      	subs	r1, #16
 80004a2:	0a1b      	lsrs	r3, r3, #8
 80004a4:	4298      	cmp	r0, r3
 80004a6:	d301      	bcc.n	80004ac <__clzsi2+0x18>
 80004a8:	0a00      	lsrs	r0, r0, #8
 80004aa:	3908      	subs	r1, #8
 80004ac:	091b      	lsrs	r3, r3, #4
 80004ae:	4298      	cmp	r0, r3
 80004b0:	d301      	bcc.n	80004b6 <__clzsi2+0x22>
 80004b2:	0900      	lsrs	r0, r0, #4
 80004b4:	3904      	subs	r1, #4
 80004b6:	a202      	add	r2, pc, #8	; (adr r2, 80004c0 <__clzsi2+0x2c>)
 80004b8:	5c10      	ldrb	r0, [r2, r0]
 80004ba:	1840      	adds	r0, r0, r1
 80004bc:	4770      	bx	lr
 80004be:	46c0      	nop			; (mov r8, r8)
 80004c0:	02020304 	.word	0x02020304
 80004c4:	01010101 	.word	0x01010101
	...

080004d0 <MX_GPIO_Init>:
 80004d0:	2180      	movs	r1, #128	; 0x80
 80004d2:	4b09      	ldr	r3, [pc, #36]	; (80004f8 <MX_GPIO_Init+0x28>)
 80004d4:	b082      	sub	sp, #8
 80004d6:	6ada      	ldr	r2, [r3, #44]	; 0x2c
 80004d8:	430a      	orrs	r2, r1
 80004da:	62da      	str	r2, [r3, #44]	; 0x2c
 80004dc:	6ada      	ldr	r2, [r3, #44]	; 0x2c
 80004de:	400a      	ands	r2, r1
 80004e0:	9200      	str	r2, [sp, #0]
 80004e2:	9a00      	ldr	r2, [sp, #0]
 80004e4:	6ada      	ldr	r2, [r3, #44]	; 0x2c
 80004e6:	397f      	subs	r1, #127	; 0x7f
 80004e8:	430a      	orrs	r2, r1
 80004ea:	62da      	str	r2, [r3, #44]	; 0x2c
 80004ec:	6adb      	ldr	r3, [r3, #44]	; 0x2c
 80004ee:	400b      	ands	r3, r1
 80004f0:	9301      	str	r3, [sp, #4]
 80004f2:	9b01      	ldr	r3, [sp, #4]
 80004f4:	b002      	add	sp, #8
 80004f6:	4770      	bx	lr
 80004f8:	40021000 	.word	0x40021000

080004fc <SystemClock_Config>:
 80004fc:	b510      	push	{r4, lr}
 80004fe:	b09c      	sub	sp, #112	; 0x70
 8000500:	2220      	movs	r2, #32
 8000502:	2100      	movs	r1, #0
 8000504:	a810      	add	r0, sp, #64	; 0x40
 8000506:	f003 f89a 	bl	800363e <memset>
 800050a:	2214      	movs	r2, #20
 800050c:	2100      	movs	r1, #0
 800050e:	4668      	mov	r0, sp
 8000510:	f003 f895 	bl	800363e <memset>
 8000514:	2224      	movs	r2, #36	; 0x24
 8000516:	2100      	movs	r1, #0
 8000518:	a805      	add	r0, sp, #20
 800051a:	f003 f890 	bl	800363e <memset>
 800051e:	491d      	ldr	r1, [pc, #116]	; (8000594 <SystemClock_Config+0x98>)
 8000520:	4b1d      	ldr	r3, [pc, #116]	; (8000598 <SystemClock_Config+0x9c>)
 8000522:	680a      	ldr	r2, [r1, #0]
 8000524:	2401      	movs	r4, #1
 8000526:	401a      	ands	r2, r3
 8000528:	2380      	movs	r3, #128	; 0x80
 800052a:	011b      	lsls	r3, r3, #4
 800052c:	4313      	orrs	r3, r2
 800052e:	600b      	str	r3, [r1, #0]
 8000530:	2303      	movs	r3, #3
 8000532:	930e      	str	r3, [sp, #56]	; 0x38
 8000534:	2380      	movs	r3, #128	; 0x80
 8000536:	025b      	lsls	r3, r3, #9
 8000538:	930f      	str	r3, [sp, #60]	; 0x3c
 800053a:	9319      	str	r3, [sp, #100]	; 0x64
 800053c:	2380      	movs	r3, #128	; 0x80
 800053e:	035b      	lsls	r3, r3, #13
 8000540:	2210      	movs	r2, #16
 8000542:	931a      	str	r3, [sp, #104]	; 0x68
 8000544:	2380      	movs	r3, #128	; 0x80
 8000546:	9212      	str	r2, [sp, #72]	; 0x48
 8000548:	03db      	lsls	r3, r3, #15
 800054a:	3a0e      	subs	r2, #14
 800054c:	a80e      	add	r0, sp, #56	; 0x38
 800054e:	9411      	str	r4, [sp, #68]	; 0x44
 8000550:	9218      	str	r2, [sp, #96]	; 0x60
 8000552:	931b      	str	r3, [sp, #108]	; 0x6c
 8000554:	f001 f800 	bl	8001558 <HAL_RCC_OscConfig>
 8000558:	1e01      	subs	r1, r0, #0
 800055a:	d001      	beq.n	8000560 <SystemClock_Config+0x64>
 800055c:	b672      	cpsid	i
 800055e:	e7fe      	b.n	800055e <SystemClock_Config+0x62>
 8000560:	230f      	movs	r3, #15
 8000562:	9002      	str	r0, [sp, #8]
 8000564:	9003      	str	r0, [sp, #12]
 8000566:	9004      	str	r0, [sp, #16]
 8000568:	4668      	mov	r0, sp
 800056a:	9300      	str	r3, [sp, #0]
 800056c:	9401      	str	r4, [sp, #4]
 800056e:	f001 fa7d 	bl	8001a6c <HAL_RCC_ClockConfig>
 8000572:	2800      	cmp	r0, #0
 8000574:	d001      	beq.n	800057a <SystemClock_Config+0x7e>
 8000576:	b672      	cpsid	i
 8000578:	e7fe      	b.n	8000578 <SystemClock_Config+0x7c>
 800057a:	2340      	movs	r3, #64	; 0x40
 800057c:	900d      	str	r0, [sp, #52]	; 0x34
 800057e:	a805      	add	r0, sp, #20
 8000580:	9305      	str	r3, [sp, #20]
 8000582:	f001 fb41 	bl	8001c08 <HAL_RCCEx_PeriphCLKConfig>
 8000586:	2800      	cmp	r0, #0
 8000588:	d001      	beq.n	800058e <SystemClock_Config+0x92>
 800058a:	b672      	cpsid	i
 800058c:	e7fe      	b.n	800058c <SystemClock_Config+0x90>
 800058e:	b01c      	add	sp, #112	; 0x70
 8000590:	bd10      	pop	{r4, pc}
 8000592:	46c0      	nop			; (mov r8, r8)
 8000594:	40007000 	.word	0x40007000
 8000598:	ffffe7ff 	.word	0xffffe7ff

0800059c <main>:
 800059c:	b510      	push	{r4, lr}
 800059e:	24fa      	movs	r4, #250	; 0xfa
 80005a0:	f000 f882 	bl	80006a8 <HAL_Init>
 80005a4:	f7ff ffaa 	bl	80004fc <SystemClock_Config>
 80005a8:	f7ff ff92 	bl	80004d0 <MX_GPIO_Init>
 80005ac:	f002 fe36 	bl	800321c <MX_USB_DEVICE_Init>
 80005b0:	00a4      	lsls	r4, r4, #2
 80005b2:	2105      	movs	r1, #5
 80005b4:	4803      	ldr	r0, [pc, #12]	; (80005c4 <main+0x28>)
 80005b6:	f002 fe83 	bl	80032c0 <CDC_Transmit_FS>
 80005ba:	0020      	movs	r0, r4
 80005bc:	f000 f89a 	bl	80006f4 <HAL_Delay>
 80005c0:	e7f7      	b.n	80005b2 <main+0x16>
 80005c2:	46c0      	nop			; (mov r8, r8)
 80005c4:	080036b0 	.word	0x080036b0

080005c8 <Error_Handler>:
 80005c8:	b672      	cpsid	i
 80005ca:	e7fe      	b.n	80005ca <Error_Handler+0x2>

080005cc <HAL_MspInit>:
 80005cc:	2201      	movs	r2, #1
 80005ce:	4b05      	ldr	r3, [pc, #20]	; (80005e4 <HAL_MspInit+0x18>)
 80005d0:	6b59      	ldr	r1, [r3, #52]	; 0x34
 80005d2:	430a      	orrs	r2, r1
 80005d4:	635a      	str	r2, [r3, #52]	; 0x34
 80005d6:	2280      	movs	r2, #128	; 0x80
 80005d8:	6b99      	ldr	r1, [r3, #56]	; 0x38
 80005da:	0552      	lsls	r2, r2, #21
 80005dc:	430a      	orrs	r2, r1
 80005de:	639a      	str	r2, [r3, #56]	; 0x38
 80005e0:	4770      	bx	lr
 80005e2:	46c0      	nop			; (mov r8, r8)
 80005e4:	40021000 	.word	0x40021000

080005e8 <NMI_Handler>:
 80005e8:	e7fe      	b.n	80005e8 <NMI_Handler>

080005ea <HardFault_Handler>:
 80005ea:	e7fe      	b.n	80005ea <HardFault_Handler>

080005ec <SVC_Handler>:
 80005ec:	4770      	bx	lr

080005ee <PendSV_Handler>:
 80005ee:	4770      	bx	lr

080005f0 <SysTick_Handler>:
 80005f0:	b510      	push	{r4, lr}
 80005f2:	f000 f86d 	bl	80006d0 <HAL_IncTick>
 80005f6:	bd10      	pop	{r4, pc}

080005f8 <USB_IRQHandler>:
 80005f8:	b510      	push	{r4, lr}
 80005fa:	4802      	ldr	r0, [pc, #8]	; (8000604 <USB_IRQHandler+0xc>)
 80005fc:	f000 f96c 	bl	80008d8 <HAL_PCD_IRQHandler>
 8000600:	bd10      	pop	{r4, pc}
 8000602:	46c0      	nop			; (mov r8, r8)
 8000604:	20000e64 	.word	0x20000e64

08000608 <SystemInit>:
 8000608:	4770      	bx	lr
	...

0800060c <Reset_Handler>:
 800060c:	480d      	ldr	r0, [pc, #52]	; (8000644 <LoopForever+0x2>)
 800060e:	4685      	mov	sp, r0
 8000610:	f7ff fffa 	bl	8000608 <SystemInit>
 8000614:	480c      	ldr	r0, [pc, #48]	; (8000648 <LoopForever+0x6>)
 8000616:	490d      	ldr	r1, [pc, #52]	; (800064c <LoopForever+0xa>)
 8000618:	4a0d      	ldr	r2, [pc, #52]	; (8000650 <LoopForever+0xe>)
 800061a:	2300      	movs	r3, #0
 800061c:	e002      	b.n	8000624 <LoopCopyDataInit>

0800061e <CopyDataInit>:
 800061e:	58d4      	ldr	r4, [r2, r3]
 8000620:	50c4      	str	r4, [r0, r3]
 8000622:	3304      	adds	r3, #4

08000624 <LoopCopyDataInit>:
 8000624:	18c4      	adds	r4, r0, r3
 8000626:	428c      	cmp	r4, r1
 8000628:	d3f9      	bcc.n	800061e <CopyDataInit>
 800062a:	4a0a      	ldr	r2, [pc, #40]	; (8000654 <LoopForever+0x12>)
 800062c:	4c0a      	ldr	r4, [pc, #40]	; (8000658 <LoopForever+0x16>)
 800062e:	2300      	movs	r3, #0
 8000630:	e001      	b.n	8000636 <LoopFillZerobss>

08000632 <FillZerobss>:
 8000632:	6013      	str	r3, [r2, #0]
 8000634:	3204      	adds	r2, #4

08000636 <LoopFillZerobss>:
 8000636:	42a2      	cmp	r2, r4
 8000638:	d3fb      	bcc.n	8000632 <FillZerobss>
 800063a:	f003 f809 	bl	8003650 <__libc_init_array>
 800063e:	f7ff ffad 	bl	800059c <main>

08000642 <LoopForever>:
 8000642:	e7fe      	b.n	8000642 <LoopForever>
 8000644:	20005000 	.word	0x20005000
 8000648:	20000000 	.word	0x20000000
 800064c:	2000017c 	.word	0x2000017c
 8000650:	08003728 	.word	0x08003728
 8000654:	2000017c 	.word	0x2000017c
 8000658:	20001378 	.word	0x20001378

0800065c <ADC1_COMP_IRQHandler>:
 800065c:	e7fe      	b.n	800065c <ADC1_COMP_IRQHandler>
	...

08000660 <HAL_InitTick>:
 8000660:	b570      	push	{r4, r5, r6, lr}
 8000662:	0005      	movs	r5, r0
 8000664:	20fa      	movs	r0, #250	; 0xfa
 8000666:	4b0d      	ldr	r3, [pc, #52]	; (800069c <HAL_InitTick+0x3c>)
 8000668:	0080      	lsls	r0, r0, #2
 800066a:	7819      	ldrb	r1, [r3, #0]
 800066c:	f7ff fd60 	bl	8000130 <__udivsi3>
 8000670:	4c0b      	ldr	r4, [pc, #44]	; (80006a0 <HAL_InitTick+0x40>)
 8000672:	0001      	movs	r1, r0
 8000674:	6820      	ldr	r0, [r4, #0]
 8000676:	f7ff fd5b 	bl	8000130 <__udivsi3>
 800067a:	f000 f883 	bl	8000784 <HAL_SYSTICK_Config>
 800067e:	0004      	movs	r4, r0
 8000680:	2001      	movs	r0, #1
 8000682:	2c00      	cmp	r4, #0
 8000684:	d109      	bne.n	800069a <HAL_InitTick+0x3a>
 8000686:	2d03      	cmp	r5, #3
 8000688:	d807      	bhi.n	800069a <HAL_InitTick+0x3a>
 800068a:	3802      	subs	r0, #2
 800068c:	0022      	movs	r2, r4
 800068e:	0029      	movs	r1, r5
 8000690:	f000 f842 	bl	8000718 <HAL_NVIC_SetPriority>
 8000694:	0020      	movs	r0, r4
 8000696:	4b03      	ldr	r3, [pc, #12]	; (80006a4 <HAL_InitTick+0x44>)
 8000698:	601d      	str	r5, [r3, #0]
 800069a:	bd70      	pop	{r4, r5, r6, pc}
 800069c:	20000004 	.word	0x20000004
 80006a0:	20000000 	.word	0x20000000
 80006a4:	20000008 	.word	0x20000008

080006a8 <HAL_Init>:
 80006a8:	2340      	movs	r3, #64	; 0x40
 80006aa:	4a08      	ldr	r2, [pc, #32]	; (80006cc <HAL_Init+0x24>)
 80006ac:	b510      	push	{r4, lr}
 80006ae:	6811      	ldr	r1, [r2, #0]
 80006b0:	2003      	movs	r0, #3
 80006b2:	430b      	orrs	r3, r1
 80006b4:	6013      	str	r3, [r2, #0]
 80006b6:	f7ff ffd3 	bl	8000660 <HAL_InitTick>
 80006ba:	1e04      	subs	r4, r0, #0
 80006bc:	d103      	bne.n	80006c6 <HAL_Init+0x1e>
 80006be:	f7ff ff85 	bl	80005cc <HAL_MspInit>
 80006c2:	0020      	movs	r0, r4
 80006c4:	bd10      	pop	{r4, pc}
 80006c6:	2401      	movs	r4, #1
 80006c8:	e7fb      	b.n	80006c2 <HAL_Init+0x1a>
 80006ca:	46c0      	nop			; (mov r8, r8)
 80006cc:	40022000 	.word	0x40022000

080006d0 <HAL_IncTick>:
 80006d0:	4a03      	ldr	r2, [pc, #12]	; (80006e0 <HAL_IncTick+0x10>)
 80006d2:	4b04      	ldr	r3, [pc, #16]	; (80006e4 <HAL_IncTick+0x14>)
 80006d4:	6811      	ldr	r1, [r2, #0]
 80006d6:	781b      	ldrb	r3, [r3, #0]
 80006d8:	185b      	adds	r3, r3, r1
 80006da:	6013      	str	r3, [r2, #0]
 80006dc:	4770      	bx	lr
 80006de:	46c0      	nop			; (mov r8, r8)
 80006e0:	20000198 	.word	0x20000198
 80006e4:	20000004 	.word	0x20000004

080006e8 <HAL_GetTick>:
 80006e8:	4b01      	ldr	r3, [pc, #4]	; (80006f0 <HAL_GetTick+0x8>)
 80006ea:	6818      	ldr	r0, [r3, #0]
 80006ec:	4770      	bx	lr
 80006ee:	46c0      	nop			; (mov r8, r8)
 80006f0:	20000198 	.word	0x20000198

080006f4 <HAL_Delay>:
 80006f4:	b570      	push	{r4, r5, r6, lr}
 80006f6:	0004      	movs	r4, r0
 80006f8:	f7ff fff6 	bl	80006e8 <HAL_GetTick>
 80006fc:	0005      	movs	r5, r0
 80006fe:	1c63      	adds	r3, r4, #1
 8000700:	d002      	beq.n	8000708 <HAL_Delay+0x14>
 8000702:	4b04      	ldr	r3, [pc, #16]	; (8000714 <HAL_Delay+0x20>)
 8000704:	781b      	ldrb	r3, [r3, #0]
 8000706:	18e4      	adds	r4, r4, r3
 8000708:	f7ff ffee 	bl	80006e8 <HAL_GetTick>
 800070c:	1b40      	subs	r0, r0, r5
 800070e:	42a0      	cmp	r0, r4
 8000710:	d3fa      	bcc.n	8000708 <HAL_Delay+0x14>
 8000712:	bd70      	pop	{r4, r5, r6, pc}
 8000714:	20000004 	.word	0x20000004

08000718 <HAL_NVIC_SetPriority>:
 8000718:	b530      	push	{r4, r5, lr}
 800071a:	25ff      	movs	r5, #255	; 0xff
 800071c:	2403      	movs	r4, #3
 800071e:	002a      	movs	r2, r5
 8000720:	4004      	ands	r4, r0
 8000722:	00e4      	lsls	r4, r4, #3
 8000724:	40a2      	lsls	r2, r4
 8000726:	0189      	lsls	r1, r1, #6
 8000728:	4029      	ands	r1, r5
 800072a:	43d2      	mvns	r2, r2
 800072c:	40a1      	lsls	r1, r4
 800072e:	b2c3      	uxtb	r3, r0
 8000730:	2800      	cmp	r0, #0
 8000732:	db0a      	blt.n	800074a <HAL_NVIC_SetPriority+0x32>
 8000734:	24c0      	movs	r4, #192	; 0xc0
 8000736:	4b0b      	ldr	r3, [pc, #44]	; (8000764 <HAL_NVIC_SetPriority+0x4c>)
 8000738:	0880      	lsrs	r0, r0, #2
 800073a:	0080      	lsls	r0, r0, #2
 800073c:	18c0      	adds	r0, r0, r3
 800073e:	00a4      	lsls	r4, r4, #2
 8000740:	5903      	ldr	r3, [r0, r4]
 8000742:	4013      	ands	r3, r2
 8000744:	430b      	orrs	r3, r1
 8000746:	5103      	str	r3, [r0, r4]
 8000748:	bd30      	pop	{r4, r5, pc}
 800074a:	200f      	movs	r0, #15
 800074c:	4003      	ands	r3, r0
 800074e:	3b08      	subs	r3, #8
 8000750:	4805      	ldr	r0, [pc, #20]	; (8000768 <HAL_NVIC_SetPriority+0x50>)
 8000752:	089b      	lsrs	r3, r3, #2
 8000754:	009b      	lsls	r3, r3, #2
 8000756:	181b      	adds	r3, r3, r0
 8000758:	69d8      	ldr	r0, [r3, #28]
 800075a:	4002      	ands	r2, r0
 800075c:	430a      	orrs	r2, r1
 800075e:	61da      	str	r2, [r3, #28]
 8000760:	e7f2      	b.n	8000748 <HAL_NVIC_SetPriority+0x30>
 8000762:	46c0      	nop			; (mov r8, r8)
 8000764:	e000e100 	.word	0xe000e100
 8000768:	e000ed00 	.word	0xe000ed00

0800076c <HAL_NVIC_EnableIRQ>:
 800076c:	2800      	cmp	r0, #0
 800076e:	db05      	blt.n	800077c <HAL_NVIC_EnableIRQ+0x10>
 8000770:	231f      	movs	r3, #31
 8000772:	4018      	ands	r0, r3
 8000774:	3b1e      	subs	r3, #30
 8000776:	4083      	lsls	r3, r0
 8000778:	4a01      	ldr	r2, [pc, #4]	; (8000780 <HAL_NVIC_EnableIRQ+0x14>)
 800077a:	6013      	str	r3, [r2, #0]
 800077c:	4770      	bx	lr
 800077e:	46c0      	nop			; (mov r8, r8)
 8000780:	e000e100 	.word	0xe000e100

08000784 <HAL_SYSTICK_Config>:
 8000784:	2280      	movs	r2, #128	; 0x80
 8000786:	1e43      	subs	r3, r0, #1
 8000788:	0452      	lsls	r2, r2, #17
 800078a:	2001      	movs	r0, #1
 800078c:	4293      	cmp	r3, r2
 800078e:	d20d      	bcs.n	80007ac <HAL_SYSTICK_Config+0x28>
 8000790:	21c0      	movs	r1, #192	; 0xc0
 8000792:	4a07      	ldr	r2, [pc, #28]	; (80007b0 <HAL_SYSTICK_Config+0x2c>)
 8000794:	4807      	ldr	r0, [pc, #28]	; (80007b4 <HAL_SYSTICK_Config+0x30>)
 8000796:	6053      	str	r3, [r2, #4]
 8000798:	6a03      	ldr	r3, [r0, #32]
 800079a:	0609      	lsls	r1, r1, #24
 800079c:	021b      	lsls	r3, r3, #8
 800079e:	0a1b      	lsrs	r3, r3, #8
 80007a0:	430b      	orrs	r3, r1
 80007a2:	6203      	str	r3, [r0, #32]
 80007a4:	2000      	movs	r0, #0
 80007a6:	2307      	movs	r3, #7
 80007a8:	6090      	str	r0, [r2, #8]
 80007aa:	6013      	str	r3, [r2, #0]
 80007ac:	4770      	bx	lr
 80007ae:	46c0      	nop			; (mov r8, r8)
 80007b0:	e000e010 	.word	0xe000e010
 80007b4:	e000ed00 	.word	0xe000ed00

080007b8 <HAL_PCD_Init>:
 80007b8:	b5f0      	push	{r4, r5, r6, r7, lr}
 80007ba:	0004      	movs	r4, r0
 80007bc:	2501      	movs	r5, #1
 80007be:	b087      	sub	sp, #28
 80007c0:	2800      	cmp	r0, #0
 80007c2:	d032      	beq.n	800082a <HAL_PCD_Init+0x72>
 80007c4:	4d30      	ldr	r5, [pc, #192]	; (8000888 <HAL_PCD_Init+0xd0>)
 80007c6:	5d43      	ldrb	r3, [r0, r5]
 80007c8:	b2da      	uxtb	r2, r3
 80007ca:	2b00      	cmp	r3, #0
 80007cc:	d104      	bne.n	80007d8 <HAL_PCD_Init+0x20>
 80007ce:	23aa      	movs	r3, #170	; 0xaa
 80007d0:	009b      	lsls	r3, r3, #2
 80007d2:	54c2      	strb	r2, [r0, r3]
 80007d4:	f002 fe0e 	bl	80033f4 <HAL_PCD_MspInit>
 80007d8:	2303      	movs	r3, #3
 80007da:	5563      	strb	r3, [r4, r5]
 80007dc:	6820      	ldr	r0, [r4, #0]
 80007de:	f001 fafb 	bl	8001dd8 <USB_DisableGlobalInt>
 80007e2:	2300      	movs	r3, #0
 80007e4:	2701      	movs	r7, #1
 80007e6:	0019      	movs	r1, r3
 80007e8:	6860      	ldr	r0, [r4, #4]
 80007ea:	4283      	cmp	r3, r0
 80007ec:	d320      	bcc.n	8000830 <HAL_PCD_Init+0x78>
 80007ee:	2200      	movs	r2, #0
 80007f0:	2628      	movs	r6, #40	; 0x28
 80007f2:	0011      	movs	r1, r2
 80007f4:	4290      	cmp	r0, r2
 80007f6:	d833      	bhi.n	8000860 <HAL_PCD_Init+0xa8>
 80007f8:	0023      	movs	r3, r4
 80007fa:	466a      	mov	r2, sp
 80007fc:	3310      	adds	r3, #16
 80007fe:	cb43      	ldmia	r3!, {r0, r1, r6}
 8000800:	c243      	stmia	r2!, {r0, r1, r6}
 8000802:	cb03      	ldmia	r3!, {r0, r1}
 8000804:	c203      	stmia	r2!, {r0, r1}
 8000806:	68a2      	ldr	r2, [r4, #8]
 8000808:	68e3      	ldr	r3, [r4, #12]
 800080a:	6861      	ldr	r1, [r4, #4]
 800080c:	6820      	ldr	r0, [r4, #0]
 800080e:	f001 faed 	bl	8001dec <USB_DevInit>
 8000812:	2300      	movs	r3, #0
 8000814:	1d62      	adds	r2, r4, #5
 8000816:	77d3      	strb	r3, [r2, #31]
 8000818:	2201      	movs	r2, #1
 800081a:	5562      	strb	r2, [r4, r5]
 800081c:	69e2      	ldr	r2, [r4, #28]
 800081e:	001d      	movs	r5, r3
 8000820:	2a01      	cmp	r2, #1
 8000822:	d102      	bne.n	800082a <HAL_PCD_Init+0x72>
 8000824:	0020      	movs	r0, r4
 8000826:	f000 fe3a 	bl	800149e <HAL_PCDEx_ActivateLPM>
 800082a:	0028      	movs	r0, r5
 800082c:	b007      	add	sp, #28
 800082e:	bdf0      	pop	{r4, r5, r6, r7, pc}
 8000830:	2629      	movs	r6, #41	; 0x29
 8000832:	2228      	movs	r2, #40	; 0x28
 8000834:	46b4      	mov	ip, r6
 8000836:	435a      	muls	r2, r3
 8000838:	18a2      	adds	r2, r4, r2
 800083a:	4494      	add	ip, r2
 800083c:	4666      	mov	r6, ip
 800083e:	7037      	strb	r7, [r6, #0]
 8000840:	2628      	movs	r6, #40	; 0x28
 8000842:	46b4      	mov	ip, r6
 8000844:	4494      	add	ip, r2
 8000846:	4666      	mov	r6, ip
 8000848:	7033      	strb	r3, [r6, #0]
 800084a:	262b      	movs	r6, #43	; 0x2b
 800084c:	46b4      	mov	ip, r6
 800084e:	4494      	add	ip, r2
 8000850:	4666      	mov	r6, ip
 8000852:	3301      	adds	r3, #1
 8000854:	7031      	strb	r1, [r6, #0]
 8000856:	b2db      	uxtb	r3, r3
 8000858:	6391      	str	r1, [r2, #56]	; 0x38
 800085a:	63d1      	str	r1, [r2, #60]	; 0x3c
 800085c:	6411      	str	r1, [r2, #64]	; 0x40
 800085e:	e7c4      	b.n	80007ea <HAL_PCD_Init+0x32>
 8000860:	0033      	movs	r3, r6
 8000862:	4353      	muls	r3, r2
 8000864:	18e3      	adds	r3, r4, r3
 8000866:	001f      	movs	r7, r3
 8000868:	376a      	adds	r7, #106	; 0x6a
 800086a:	37ff      	adds	r7, #255	; 0xff
 800086c:	7039      	strb	r1, [r7, #0]
 800086e:	3f01      	subs	r7, #1
 8000870:	703a      	strb	r2, [r7, #0]
 8000872:	70f9      	strb	r1, [r7, #3]
 8000874:	3381      	adds	r3, #129	; 0x81
 8000876:	3f6c      	subs	r7, #108	; 0x6c
 8000878:	67f9      	str	r1, [r7, #124]	; 0x7c
 800087a:	33ff      	adds	r3, #255	; 0xff
 800087c:	3780      	adds	r7, #128	; 0x80
 800087e:	3201      	adds	r2, #1
 8000880:	6039      	str	r1, [r7, #0]
 8000882:	b2d2      	uxtb	r2, r2
 8000884:	6019      	str	r1, [r3, #0]
 8000886:	e7b5      	b.n	80007f4 <HAL_PCD_Init+0x3c>
 8000888:	000002a9 	.word	0x000002a9

0800088c <HAL_PCD_Start>:
 800088c:	b570      	push	{r4, r5, r6, lr}
 800088e:	25aa      	movs	r5, #170	; 0xaa
 8000890:	00ad      	lsls	r5, r5, #2
 8000892:	5d43      	ldrb	r3, [r0, r5]
 8000894:	0004      	movs	r4, r0
 8000896:	2002      	movs	r0, #2
 8000898:	2b01      	cmp	r3, #1
 800089a:	d009      	beq.n	80008b0 <HAL_PCD_Start+0x24>
 800089c:	2301      	movs	r3, #1
 800089e:	5563      	strb	r3, [r4, r5]
 80008a0:	6820      	ldr	r0, [r4, #0]
 80008a2:	f001 fa8f 	bl	8001dc4 <USB_EnableGlobalInt>
 80008a6:	6820      	ldr	r0, [r4, #0]
 80008a8:	f001 fc9d 	bl	80021e6 <USB_DevConnect>
 80008ac:	2000      	movs	r0, #0
 80008ae:	5560      	strb	r0, [r4, r5]
 80008b0:	bd70      	pop	{r4, r5, r6, pc}

080008b2 <HAL_PCD_SetAddress>:
 80008b2:	b570      	push	{r4, r5, r6, lr}
 80008b4:	25aa      	movs	r5, #170	; 0xaa
 80008b6:	00ad      	lsls	r5, r5, #2
 80008b8:	5d43      	ldrb	r3, [r0, r5]
 80008ba:	0004      	movs	r4, r0
 80008bc:	2002      	movs	r0, #2
 80008be:	2b01      	cmp	r3, #1
 80008c0:	d008      	beq.n	80008d4 <HAL_PCD_SetAddress+0x22>
 80008c2:	2301      	movs	r3, #1
 80008c4:	5563      	strb	r3, [r4, r5]
 80008c6:	1d63      	adds	r3, r4, #5
 80008c8:	77d9      	strb	r1, [r3, #31]
 80008ca:	6820      	ldr	r0, [r4, #0]
 80008cc:	f001 fc84 	bl	80021d8 <USB_SetDevAddress>
 80008d0:	2000      	movs	r0, #0
 80008d2:	5560      	strb	r0, [r4, r5]
 80008d4:	bd70      	pop	{r4, r5, r6, pc}
	...

080008d8 <HAL_PCD_IRQHandler>:
 80008d8:	b5f0      	push	{r4, r5, r6, r7, lr}
 80008da:	0004      	movs	r4, r0
 80008dc:	b085      	sub	sp, #20
 80008de:	6800      	ldr	r0, [r0, #0]
 80008e0:	f001 fc89 	bl	80021f6 <USB_ReadInterrupts>
 80008e4:	2380      	movs	r3, #128	; 0x80
 80008e6:	0005      	movs	r5, r0
 80008e8:	021b      	lsls	r3, r3, #8
 80008ea:	401d      	ands	r5, r3
 80008ec:	4218      	tst	r0, r3
 80008ee:	d101      	bne.n	80008f4 <HAL_PCD_IRQHandler+0x1c>
 80008f0:	f000 fc17 	bl	8001122 <HAL_PCD_IRQHandler+0x84a>
 80008f4:	6820      	ldr	r0, [r4, #0]
 80008f6:	1d82      	adds	r2, r0, #6
 80008f8:	8fd3      	ldrh	r3, [r2, #62]	; 0x3e
 80008fa:	b21b      	sxth	r3, r3
 80008fc:	2b00      	cmp	r3, #0
 80008fe:	db01      	blt.n	8000904 <HAL_PCD_IRQHandler+0x2c>
 8000900:	b005      	add	sp, #20
 8000902:	bdf0      	pop	{r4, r5, r6, r7, pc}
 8000904:	210f      	movs	r1, #15
 8000906:	8fd3      	ldrh	r3, [r2, #62]	; 0x3e
 8000908:	4019      	ands	r1, r3
 800090a:	9101      	str	r1, [sp, #4]
 800090c:	210f      	movs	r1, #15
 800090e:	b29a      	uxth	r2, r3
 8000910:	420b      	tst	r3, r1
 8000912:	d000      	beq.n	8000916 <HAL_PCD_IRQHandler+0x3e>
 8000914:	e0c3      	b.n	8000a9e <HAL_PCD_IRQHandler+0x1c6>
 8000916:	2310      	movs	r3, #16
 8000918:	0011      	movs	r1, r2
 800091a:	4019      	ands	r1, r3
 800091c:	421a      	tst	r2, r3
 800091e:	d12a      	bne.n	8000976 <HAL_PCD_IRQHandler+0x9e>
 8000920:	8803      	ldrh	r3, [r0, #0]
 8000922:	4ab8      	ldr	r2, [pc, #736]	; (8000c04 <HAL_PCD_IRQHandler+0x32c>)
 8000924:	4013      	ands	r3, r2
 8000926:	2280      	movs	r2, #128	; 0x80
 8000928:	0212      	lsls	r2, r2, #8
 800092a:	4313      	orrs	r3, r2
 800092c:	8003      	strh	r3, [r0, #0]
 800092e:	0003      	movs	r3, r0
 8000930:	3350      	adds	r3, #80	; 0x50
 8000932:	881a      	ldrh	r2, [r3, #0]
 8000934:	0023      	movs	r3, r4
 8000936:	3328      	adds	r3, #40	; 0x28
 8000938:	781b      	ldrb	r3, [r3, #0]
 800093a:	00db      	lsls	r3, r3, #3
 800093c:	18c3      	adds	r3, r0, r3
 800093e:	189b      	adds	r3, r3, r2
 8000940:	4ab1      	ldr	r2, [pc, #708]	; (8000c08 <HAL_PCD_IRQHandler+0x330>)
 8000942:	0020      	movs	r0, r4
 8000944:	189b      	adds	r3, r3, r2
 8000946:	881b      	ldrh	r3, [r3, #0]
 8000948:	6be2      	ldr	r2, [r4, #60]	; 0x3c
 800094a:	059b      	lsls	r3, r3, #22
 800094c:	0d9b      	lsrs	r3, r3, #22
 800094e:	6463      	str	r3, [r4, #68]	; 0x44
 8000950:	18d3      	adds	r3, r2, r3
 8000952:	63e3      	str	r3, [r4, #60]	; 0x3c
 8000954:	f002 fd7c 	bl	8003450 <HAL_PCD_DataInStageCallback>
 8000958:	1d63      	adds	r3, r4, #5
 800095a:	7fda      	ldrb	r2, [r3, #31]
 800095c:	2a00      	cmp	r2, #0
 800095e:	d0c9      	beq.n	80008f4 <HAL_PCD_IRQHandler+0x1c>
 8000960:	6c20      	ldr	r0, [r4, #64]	; 0x40
 8000962:	6822      	ldr	r2, [r4, #0]
 8000964:	2800      	cmp	r0, #0
 8000966:	d1c5      	bne.n	80008f4 <HAL_PCD_IRQHandler+0x1c>
 8000968:	2580      	movs	r5, #128	; 0x80
 800096a:	7fd9      	ldrb	r1, [r3, #31]
 800096c:	324c      	adds	r2, #76	; 0x4c
 800096e:	4329      	orrs	r1, r5
 8000970:	8011      	strh	r1, [r2, #0]
 8000972:	77d8      	strb	r0, [r3, #31]
 8000974:	e7be      	b.n	80008f4 <HAL_PCD_IRQHandler+0x1c>
 8000976:	8802      	ldrh	r2, [r0, #0]
 8000978:	2180      	movs	r1, #128	; 0x80
 800097a:	0016      	movs	r6, r2
 800097c:	0109      	lsls	r1, r1, #4
 800097e:	b293      	uxth	r3, r2
 8000980:	400e      	ands	r6, r1
 8000982:	420a      	tst	r2, r1
 8000984:	d022      	beq.n	80009cc <HAL_PCD_IRQHandler+0xf4>
 8000986:	0003      	movs	r3, r0
 8000988:	3350      	adds	r3, #80	; 0x50
 800098a:	881a      	ldrh	r2, [r3, #0]
 800098c:	23b4      	movs	r3, #180	; 0xb4
 800098e:	005b      	lsls	r3, r3, #1
 8000990:	5ce3      	ldrb	r3, [r4, r3]
 8000992:	21ac      	movs	r1, #172	; 0xac
 8000994:	00db      	lsls	r3, r3, #3
 8000996:	18c3      	adds	r3, r0, r3
 8000998:	189b      	adds	r3, r3, r2
 800099a:	4a9c      	ldr	r2, [pc, #624]	; (8000c0c <HAL_PCD_IRQHandler+0x334>)
 800099c:	0089      	lsls	r1, r1, #2
 800099e:	189b      	adds	r3, r3, r2
 80009a0:	0022      	movs	r2, r4
 80009a2:	881b      	ldrh	r3, [r3, #0]
 80009a4:	3269      	adds	r2, #105	; 0x69
 80009a6:	059b      	lsls	r3, r3, #22
 80009a8:	0d9b      	lsrs	r3, r3, #22
 80009aa:	32ff      	adds	r2, #255	; 0xff
 80009ac:	61d3      	str	r3, [r2, #28]
 80009ae:	1861      	adds	r1, r4, r1
 80009b0:	88d2      	ldrh	r2, [r2, #6]
 80009b2:	f001 fe8d 	bl	80026d0 <USB_ReadPMA>
 80009b6:	6822      	ldr	r2, [r4, #0]
 80009b8:	4995      	ldr	r1, [pc, #596]	; (8000c10 <HAL_PCD_IRQHandler+0x338>)
 80009ba:	8813      	ldrh	r3, [r2, #0]
 80009bc:	0020      	movs	r0, r4
 80009be:	400b      	ands	r3, r1
 80009c0:	2180      	movs	r1, #128	; 0x80
 80009c2:	430b      	orrs	r3, r1
 80009c4:	8013      	strh	r3, [r2, #0]
 80009c6:	f002 fd2d 	bl	8003424 <HAL_PCD_SetupStageCallback>
 80009ca:	e793      	b.n	80008f4 <HAL_PCD_IRQHandler+0x1c>
 80009cc:	b21b      	sxth	r3, r3
 80009ce:	2b00      	cmp	r3, #0
 80009d0:	db00      	blt.n	80009d4 <HAL_PCD_IRQHandler+0xfc>
 80009d2:	e78f      	b.n	80008f4 <HAL_PCD_IRQHandler+0x1c>
 80009d4:	8803      	ldrh	r3, [r0, #0]
 80009d6:	4a8e      	ldr	r2, [pc, #568]	; (8000c10 <HAL_PCD_IRQHandler+0x338>)
 80009d8:	0025      	movs	r5, r4
 80009da:	4013      	ands	r3, r2
 80009dc:	2280      	movs	r2, #128	; 0x80
 80009de:	4313      	orrs	r3, r2
 80009e0:	8003      	strh	r3, [r0, #0]
 80009e2:	0003      	movs	r3, r0
 80009e4:	3350      	adds	r3, #80	; 0x50
 80009e6:	881a      	ldrh	r2, [r3, #0]
 80009e8:	23b4      	movs	r3, #180	; 0xb4
 80009ea:	005b      	lsls	r3, r3, #1
 80009ec:	5ce3      	ldrb	r3, [r4, r3]
 80009ee:	3569      	adds	r5, #105	; 0x69
 80009f0:	00db      	lsls	r3, r3, #3
 80009f2:	18c3      	adds	r3, r0, r3
 80009f4:	189b      	adds	r3, r3, r2
 80009f6:	4a85      	ldr	r2, [pc, #532]	; (8000c0c <HAL_PCD_IRQHandler+0x334>)
 80009f8:	35ff      	adds	r5, #255	; 0xff
 80009fa:	189b      	adds	r3, r3, r2
 80009fc:	881b      	ldrh	r3, [r3, #0]
 80009fe:	059b      	lsls	r3, r3, #22
 8000a00:	0d9b      	lsrs	r3, r3, #22
 8000a02:	61eb      	str	r3, [r5, #28]
 8000a04:	d00d      	beq.n	8000a22 <HAL_PCD_IRQHandler+0x14a>
 8000a06:	6969      	ldr	r1, [r5, #20]
 8000a08:	2900      	cmp	r1, #0
 8000a0a:	d00a      	beq.n	8000a22 <HAL_PCD_IRQHandler+0x14a>
 8000a0c:	88ea      	ldrh	r2, [r5, #6]
 8000a0e:	f001 fe5f 	bl	80026d0 <USB_ReadPMA>
 8000a12:	696b      	ldr	r3, [r5, #20]
 8000a14:	69ea      	ldr	r2, [r5, #28]
 8000a16:	0031      	movs	r1, r6
 8000a18:	189b      	adds	r3, r3, r2
 8000a1a:	0020      	movs	r0, r4
 8000a1c:	616b      	str	r3, [r5, #20]
 8000a1e:	f002 fd0a 	bl	8003436 <HAL_PCD_DataOutStageCallback>
 8000a22:	6821      	ldr	r1, [r4, #0]
 8000a24:	880a      	ldrh	r2, [r1, #0]
 8000a26:	b293      	uxth	r3, r2
 8000a28:	0512      	lsls	r2, r2, #20
 8000a2a:	d500      	bpl.n	8000a2e <HAL_PCD_IRQHandler+0x156>
 8000a2c:	e762      	b.n	80008f4 <HAL_PCD_IRQHandler+0x1c>
 8000a2e:	22c0      	movs	r2, #192	; 0xc0
 8000a30:	0192      	lsls	r2, r2, #6
 8000a32:	4013      	ands	r3, r2
 8000a34:	4293      	cmp	r3, r2
 8000a36:	d100      	bne.n	8000a3a <HAL_PCD_IRQHandler+0x162>
 8000a38:	e75c      	b.n	80008f4 <HAL_PCD_IRQHandler+0x1c>
 8000a3a:	000b      	movs	r3, r1
 8000a3c:	3350      	adds	r3, #80	; 0x50
 8000a3e:	881a      	ldrh	r2, [r3, #0]
 8000a40:	4b72      	ldr	r3, [pc, #456]	; (8000c0c <HAL_PCD_IRQHandler+0x334>)
 8000a42:	18cb      	adds	r3, r1, r3
 8000a44:	189b      	adds	r3, r3, r2
 8000a46:	881a      	ldrh	r2, [r3, #0]
 8000a48:	0592      	lsls	r2, r2, #22
 8000a4a:	0d92      	lsrs	r2, r2, #22
 8000a4c:	801a      	strh	r2, [r3, #0]
 8000a4e:	692a      	ldr	r2, [r5, #16]
 8000a50:	2a3e      	cmp	r2, #62	; 0x3e
 8000a52:	d90c      	bls.n	8000a6e <HAL_PCD_IRQHandler+0x196>
 8000a54:	251f      	movs	r5, #31
 8000a56:	0950      	lsrs	r0, r2, #5
 8000a58:	402a      	ands	r2, r5
 8000a5a:	4255      	negs	r5, r2
 8000a5c:	416a      	adcs	r2, r5
 8000a5e:	1a80      	subs	r0, r0, r2
 8000a60:	881a      	ldrh	r2, [r3, #0]
 8000a62:	0280      	lsls	r0, r0, #10
 8000a64:	4310      	orrs	r0, r2
 8000a66:	4a6b      	ldr	r2, [pc, #428]	; (8000c14 <HAL_PCD_IRQHandler+0x33c>)
 8000a68:	4302      	orrs	r2, r0
 8000a6a:	b292      	uxth	r2, r2
 8000a6c:	e005      	b.n	8000a7a <HAL_PCD_IRQHandler+0x1a2>
 8000a6e:	2a00      	cmp	r2, #0
 8000a70:	d10e      	bne.n	8000a90 <HAL_PCD_IRQHandler+0x1b8>
 8000a72:	2080      	movs	r0, #128	; 0x80
 8000a74:	881a      	ldrh	r2, [r3, #0]
 8000a76:	0200      	lsls	r0, r0, #8
 8000a78:	4302      	orrs	r2, r0
 8000a7a:	801a      	strh	r2, [r3, #0]
 8000a7c:	880a      	ldrh	r2, [r1, #0]
 8000a7e:	4b66      	ldr	r3, [pc, #408]	; (8000c18 <HAL_PCD_IRQHandler+0x340>)
 8000a80:	401a      	ands	r2, r3
 8000a82:	23c0      	movs	r3, #192	; 0xc0
 8000a84:	019b      	lsls	r3, r3, #6
 8000a86:	4053      	eors	r3, r2
 8000a88:	4a64      	ldr	r2, [pc, #400]	; (8000c1c <HAL_PCD_IRQHandler+0x344>)
 8000a8a:	4313      	orrs	r3, r2
 8000a8c:	800b      	strh	r3, [r1, #0]
 8000a8e:	e731      	b.n	80008f4 <HAL_PCD_IRQHandler+0x1c>
 8000a90:	2501      	movs	r5, #1
 8000a92:	0850      	lsrs	r0, r2, #1
 8000a94:	402a      	ands	r2, r5
 8000a96:	1880      	adds	r0, r0, r2
 8000a98:	0280      	lsls	r0, r0, #10
 8000a9a:	881a      	ldrh	r2, [r3, #0]
 8000a9c:	e7e4      	b.n	8000a68 <HAL_PCD_IRQHandler+0x190>
 8000a9e:	9b01      	ldr	r3, [sp, #4]
 8000aa0:	009f      	lsls	r7, r3, #2
 8000aa2:	19c2      	adds	r2, r0, r7
 8000aa4:	8813      	ldrh	r3, [r2, #0]
 8000aa6:	b299      	uxth	r1, r3
 8000aa8:	b21b      	sxth	r3, r3
 8000aaa:	9102      	str	r1, [sp, #8]
 8000aac:	2b00      	cmp	r3, #0
 8000aae:	db00      	blt.n	8000ab2 <HAL_PCD_IRQHandler+0x1da>
 8000ab0:	e0f6      	b.n	8000ca0 <HAL_PCD_IRQHandler+0x3c8>
 8000ab2:	8813      	ldrh	r3, [r2, #0]
 8000ab4:	4956      	ldr	r1, [pc, #344]	; (8000c10 <HAL_PCD_IRQHandler+0x338>)
 8000ab6:	400b      	ands	r3, r1
 8000ab8:	2180      	movs	r1, #128	; 0x80
 8000aba:	430b      	orrs	r3, r1
 8000abc:	8013      	strh	r3, [r2, #0]
 8000abe:	2328      	movs	r3, #40	; 0x28
 8000ac0:	9a01      	ldr	r2, [sp, #4]
 8000ac2:	4353      	muls	r3, r2
 8000ac4:	18e3      	adds	r3, r4, r3
 8000ac6:	001a      	movs	r2, r3
 8000ac8:	001d      	movs	r5, r3
 8000aca:	3275      	adds	r2, #117	; 0x75
 8000acc:	32ff      	adds	r2, #255	; 0xff
 8000ace:	7812      	ldrb	r2, [r2, #0]
 8000ad0:	3569      	adds	r5, #105	; 0x69
 8000ad2:	35ff      	adds	r5, #255	; 0xff
 8000ad4:	2a00      	cmp	r2, #0
 8000ad6:	d11a      	bne.n	8000b0e <HAL_PCD_IRQHandler+0x236>
 8000ad8:	0002      	movs	r2, r0
 8000ada:	3250      	adds	r2, #80	; 0x50
 8000adc:	8811      	ldrh	r1, [r2, #0]
 8000ade:	782a      	ldrb	r2, [r5, #0]
 8000ae0:	00d2      	lsls	r2, r2, #3
 8000ae2:	1852      	adds	r2, r2, r1
 8000ae4:	4949      	ldr	r1, [pc, #292]	; (8000c0c <HAL_PCD_IRQHandler+0x334>)
 8000ae6:	1812      	adds	r2, r2, r0
 8000ae8:	1852      	adds	r2, r2, r1
 8000aea:	8812      	ldrh	r2, [r2, #0]
 8000aec:	0592      	lsls	r2, r2, #22
 8000aee:	0d95      	lsrs	r5, r2, #22
 8000af0:	2a00      	cmp	r2, #0
 8000af2:	d100      	bne.n	8000af6 <HAL_PCD_IRQHandler+0x21e>
 8000af4:	e0b3      	b.n	8000c5e <HAL_PCD_IRQHandler+0x386>
 8000af6:	001a      	movs	r2, r3
 8000af8:	326f      	adds	r2, #111	; 0x6f
 8000afa:	337d      	adds	r3, #125	; 0x7d
 8000afc:	33ff      	adds	r3, #255	; 0xff
 8000afe:	0019      	movs	r1, r3
 8000b00:	32ff      	adds	r2, #255	; 0xff
 8000b02:	002b      	movs	r3, r5
 8000b04:	8812      	ldrh	r2, [r2, #0]
 8000b06:	6809      	ldr	r1, [r1, #0]
 8000b08:	f001 fde2 	bl	80026d0 <USB_ReadPMA>
 8000b0c:	e0a7      	b.n	8000c5e <HAL_PCD_IRQHandler+0x386>
 8000b0e:	0019      	movs	r1, r3
 8000b10:	316c      	adds	r1, #108	; 0x6c
 8000b12:	31ff      	adds	r1, #255	; 0xff
 8000b14:	7809      	ldrb	r1, [r1, #0]
 8000b16:	782a      	ldrb	r2, [r5, #0]
 8000b18:	2902      	cmp	r1, #2
 8000b1a:	d000      	beq.n	8000b1e <HAL_PCD_IRQHandler+0x246>
 8000b1c:	e084      	b.n	8000c28 <HAL_PCD_IRQHandler+0x350>
 8000b1e:	2680      	movs	r6, #128	; 0x80
 8000b20:	01f6      	lsls	r6, r6, #7
 8000b22:	46b4      	mov	ip, r6
 8000b24:	4665      	mov	r5, ip
 8000b26:	9e02      	ldr	r6, [sp, #8]
 8000b28:	3381      	adds	r3, #129	; 0x81
 8000b2a:	402e      	ands	r6, r5
 8000b2c:	9603      	str	r6, [sp, #12]
 8000b2e:	0006      	movs	r6, r0
 8000b30:	3650      	adds	r6, #80	; 0x50
 8000b32:	9600      	str	r6, [sp, #0]
 8000b34:	4666      	mov	r6, ip
 8000b36:	9d02      	ldr	r5, [sp, #8]
 8000b38:	33ff      	adds	r3, #255	; 0xff
 8000b3a:	6819      	ldr	r1, [r3, #0]
 8000b3c:	4235      	tst	r5, r6
 8000b3e:	d030      	beq.n	8000ba2 <HAL_PCD_IRQHandler+0x2ca>
 8000b40:	9d00      	ldr	r5, [sp, #0]
 8000b42:	882e      	ldrh	r6, [r5, #0]
 8000b44:	00d5      	lsls	r5, r2, #3
 8000b46:	1976      	adds	r6, r6, r5
 8000b48:	4d2f      	ldr	r5, [pc, #188]	; (8000c08 <HAL_PCD_IRQHandler+0x330>)
 8000b4a:	1836      	adds	r6, r6, r0
 8000b4c:	1976      	adds	r6, r6, r5
 8000b4e:	8835      	ldrh	r5, [r6, #0]
 8000b50:	05ad      	lsls	r5, r5, #22
 8000b52:	0dad      	lsrs	r5, r5, #22
 8000b54:	428d      	cmp	r5, r1
 8000b56:	d90d      	bls.n	8000b74 <HAL_PCD_IRQHandler+0x29c>
 8000b58:	2100      	movs	r1, #0
 8000b5a:	6019      	str	r1, [r3, #0]
 8000b5c:	0091      	lsls	r1, r2, #2
 8000b5e:	1841      	adds	r1, r0, r1
 8000b60:	880e      	ldrh	r6, [r1, #0]
 8000b62:	4b2d      	ldr	r3, [pc, #180]	; (8000c18 <HAL_PCD_IRQHandler+0x340>)
 8000b64:	401e      	ands	r6, r3
 8000b66:	2380      	movs	r3, #128	; 0x80
 8000b68:	019b      	lsls	r3, r3, #6
 8000b6a:	4073      	eors	r3, r6
 8000b6c:	4e2b      	ldr	r6, [pc, #172]	; (8000c1c <HAL_PCD_IRQHandler+0x344>)
 8000b6e:	4333      	orrs	r3, r6
 8000b70:	800b      	strh	r3, [r1, #0]
 8000b72:	e002      	b.n	8000b7a <HAL_PCD_IRQHandler+0x2a2>
 8000b74:	1b49      	subs	r1, r1, r5
 8000b76:	6019      	str	r1, [r3, #0]
 8000b78:	d0f0      	beq.n	8000b5c <HAL_PCD_IRQHandler+0x284>
 8000b7a:	9b02      	ldr	r3, [sp, #8]
 8000b7c:	065b      	lsls	r3, r3, #25
 8000b7e:	d507      	bpl.n	8000b90 <HAL_PCD_IRQHandler+0x2b8>
 8000b80:	0092      	lsls	r2, r2, #2
 8000b82:	1882      	adds	r2, r0, r2
 8000b84:	8813      	ldrh	r3, [r2, #0]
 8000b86:	4926      	ldr	r1, [pc, #152]	; (8000c20 <HAL_PCD_IRQHandler+0x348>)
 8000b88:	400b      	ands	r3, r1
 8000b8a:	4926      	ldr	r1, [pc, #152]	; (8000c24 <HAL_PCD_IRQHandler+0x34c>)
 8000b8c:	430b      	orrs	r3, r1
 8000b8e:	8013      	strh	r3, [r2, #0]
 8000b90:	2d00      	cmp	r5, #0
 8000b92:	d064      	beq.n	8000c5e <HAL_PCD_IRQHandler+0x386>
 8000b94:	2328      	movs	r3, #40	; 0x28
 8000b96:	9a01      	ldr	r2, [sp, #4]
 8000b98:	4353      	muls	r3, r2
 8000b9a:	18e3      	adds	r3, r4, r3
 8000b9c:	001a      	movs	r2, r3
 8000b9e:	3271      	adds	r2, #113	; 0x71
 8000ba0:	e7ab      	b.n	8000afa <HAL_PCD_IRQHandler+0x222>
 8000ba2:	9d00      	ldr	r5, [sp, #0]
 8000ba4:	882e      	ldrh	r6, [r5, #0]
 8000ba6:	00d5      	lsls	r5, r2, #3
 8000ba8:	1976      	adds	r6, r6, r5
 8000baa:	4d18      	ldr	r5, [pc, #96]	; (8000c0c <HAL_PCD_IRQHandler+0x334>)
 8000bac:	1836      	adds	r6, r6, r0
 8000bae:	1976      	adds	r6, r6, r5
 8000bb0:	8835      	ldrh	r5, [r6, #0]
 8000bb2:	05ad      	lsls	r5, r5, #22
 8000bb4:	0dad      	lsrs	r5, r5, #22
 8000bb6:	428d      	cmp	r5, r1
 8000bb8:	d90d      	bls.n	8000bd6 <HAL_PCD_IRQHandler+0x2fe>
 8000bba:	9903      	ldr	r1, [sp, #12]
 8000bbc:	6019      	str	r1, [r3, #0]
 8000bbe:	0091      	lsls	r1, r2, #2
 8000bc0:	1841      	adds	r1, r0, r1
 8000bc2:	880e      	ldrh	r6, [r1, #0]
 8000bc4:	4b14      	ldr	r3, [pc, #80]	; (8000c18 <HAL_PCD_IRQHandler+0x340>)
 8000bc6:	401e      	ands	r6, r3
 8000bc8:	2380      	movs	r3, #128	; 0x80
 8000bca:	019b      	lsls	r3, r3, #6
 8000bcc:	4073      	eors	r3, r6
 8000bce:	4e13      	ldr	r6, [pc, #76]	; (8000c1c <HAL_PCD_IRQHandler+0x344>)
 8000bd0:	4333      	orrs	r3, r6
 8000bd2:	800b      	strh	r3, [r1, #0]
 8000bd4:	e002      	b.n	8000bdc <HAL_PCD_IRQHandler+0x304>
 8000bd6:	1b49      	subs	r1, r1, r5
 8000bd8:	6019      	str	r1, [r3, #0]
 8000bda:	d0f0      	beq.n	8000bbe <HAL_PCD_IRQHandler+0x2e6>
 8000bdc:	9b02      	ldr	r3, [sp, #8]
 8000bde:	065b      	lsls	r3, r3, #25
 8000be0:	d407      	bmi.n	8000bf2 <HAL_PCD_IRQHandler+0x31a>
 8000be2:	0092      	lsls	r2, r2, #2
 8000be4:	1882      	adds	r2, r0, r2
 8000be6:	8813      	ldrh	r3, [r2, #0]
 8000be8:	490d      	ldr	r1, [pc, #52]	; (8000c20 <HAL_PCD_IRQHandler+0x348>)
 8000bea:	400b      	ands	r3, r1
 8000bec:	490d      	ldr	r1, [pc, #52]	; (8000c24 <HAL_PCD_IRQHandler+0x34c>)
 8000bee:	430b      	orrs	r3, r1
 8000bf0:	8013      	strh	r3, [r2, #0]
 8000bf2:	2d00      	cmp	r5, #0
 8000bf4:	d033      	beq.n	8000c5e <HAL_PCD_IRQHandler+0x386>
 8000bf6:	2328      	movs	r3, #40	; 0x28
 8000bf8:	9a01      	ldr	r2, [sp, #4]
 8000bfa:	4353      	muls	r3, r2
 8000bfc:	18e3      	adds	r3, r4, r3
 8000bfe:	001a      	movs	r2, r3
 8000c00:	3273      	adds	r2, #115	; 0x73
 8000c02:	e77a      	b.n	8000afa <HAL_PCD_IRQHandler+0x222>
 8000c04:	ffff8f0f 	.word	0xffff8f0f
 8000c08:	00000402 	.word	0x00000402
 8000c0c:	00000406 	.word	0x00000406
 8000c10:	00000f8f 	.word	0x00000f8f
 8000c14:	ffff8000 	.word	0xffff8000
 8000c18:	ffffbf8f 	.word	0xffffbf8f
 8000c1c:	00008080 	.word	0x00008080
 8000c20:	ffff8f8f 	.word	0xffff8f8f
 8000c24:	000080c0 	.word	0x000080c0
 8000c28:	0092      	lsls	r2, r2, #2
 8000c2a:	1882      	adds	r2, r0, r2
 8000c2c:	8816      	ldrh	r6, [r2, #0]
 8000c2e:	49ce      	ldr	r1, [pc, #824]	; (8000f68 <HAL_PCD_IRQHandler+0x690>)
 8000c30:	4031      	ands	r1, r6
 8000c32:	4ece      	ldr	r6, [pc, #824]	; (8000f6c <HAL_PCD_IRQHandler+0x694>)
 8000c34:	4331      	orrs	r1, r6
 8000c36:	8011      	strh	r1, [r2, #0]
 8000c38:	782a      	ldrb	r2, [r5, #0]
 8000c3a:	0091      	lsls	r1, r2, #2
 8000c3c:	1841      	adds	r1, r0, r1
 8000c3e:	880d      	ldrh	r5, [r1, #0]
 8000c40:	0001      	movs	r1, r0
 8000c42:	3150      	adds	r1, #80	; 0x50
 8000c44:	8809      	ldrh	r1, [r1, #0]
 8000c46:	00d2      	lsls	r2, r2, #3
 8000c48:	1852      	adds	r2, r2, r1
 8000c4a:	1812      	adds	r2, r2, r0
 8000c4c:	046d      	lsls	r5, r5, #17
 8000c4e:	d562      	bpl.n	8000d16 <HAL_PCD_IRQHandler+0x43e>
 8000c50:	49c7      	ldr	r1, [pc, #796]	; (8000f70 <HAL_PCD_IRQHandler+0x698>)
 8000c52:	1852      	adds	r2, r2, r1
 8000c54:	8812      	ldrh	r2, [r2, #0]
 8000c56:	0592      	lsls	r2, r2, #22
 8000c58:	0d95      	lsrs	r5, r2, #22
 8000c5a:	2a00      	cmp	r2, #0
 8000c5c:	d19e      	bne.n	8000b9c <HAL_PCD_IRQHandler+0x2c4>
 8000c5e:	2328      	movs	r3, #40	; 0x28
 8000c60:	9901      	ldr	r1, [sp, #4]
 8000c62:	4359      	muls	r1, r3
 8000c64:	1862      	adds	r2, r4, r1
 8000c66:	0016      	movs	r6, r2
 8000c68:	3685      	adds	r6, #133	; 0x85
 8000c6a:	36ff      	adds	r6, #255	; 0xff
 8000c6c:	6830      	ldr	r0, [r6, #0]
 8000c6e:	3e08      	subs	r6, #8
 8000c70:	1940      	adds	r0, r0, r5
 8000c72:	60b0      	str	r0, [r6, #8]
 8000c74:	6830      	ldr	r0, [r6, #0]
 8000c76:	1940      	adds	r0, r0, r5
 8000c78:	6030      	str	r0, [r6, #0]
 8000c7a:	0010      	movs	r0, r2
 8000c7c:	3081      	adds	r0, #129	; 0x81
 8000c7e:	30ff      	adds	r0, #255	; 0xff
 8000c80:	6800      	ldr	r0, [r0, #0]
 8000c82:	2800      	cmp	r0, #0
 8000c84:	d003      	beq.n	8000c8e <HAL_PCD_IRQHandler+0x3b6>
 8000c86:	32fc      	adds	r2, #252	; 0xfc
 8000c88:	6fd2      	ldr	r2, [r2, #124]	; 0x7c
 8000c8a:	4295      	cmp	r5, r2
 8000c8c:	d24b      	bcs.n	8000d26 <HAL_PCD_IRQHandler+0x44e>
 8000c8e:	9a01      	ldr	r2, [sp, #4]
 8000c90:	0020      	movs	r0, r4
 8000c92:	4353      	muls	r3, r2
 8000c94:	18e3      	adds	r3, r4, r3
 8000c96:	3369      	adds	r3, #105	; 0x69
 8000c98:	33ff      	adds	r3, #255	; 0xff
 8000c9a:	7819      	ldrb	r1, [r3, #0]
 8000c9c:	f002 fbcb 	bl	8003436 <HAL_PCD_DataOutStageCallback>
 8000ca0:	2280      	movs	r2, #128	; 0x80
 8000ca2:	9b02      	ldr	r3, [sp, #8]
 8000ca4:	6820      	ldr	r0, [r4, #0]
 8000ca6:	4213      	tst	r3, r2
 8000ca8:	d100      	bne.n	8000cac <HAL_PCD_IRQHandler+0x3d4>
 8000caa:	e623      	b.n	80008f4 <HAL_PCD_IRQHandler+0x1c>
 8000cac:	19c2      	adds	r2, r0, r7
 8000cae:	8813      	ldrh	r3, [r2, #0]
 8000cb0:	49b0      	ldr	r1, [pc, #704]	; (8000f74 <HAL_PCD_IRQHandler+0x69c>)
 8000cb2:	9d01      	ldr	r5, [sp, #4]
 8000cb4:	400b      	ands	r3, r1
 8000cb6:	49b0      	ldr	r1, [pc, #704]	; (8000f78 <HAL_PCD_IRQHandler+0x6a0>)
 8000cb8:	430b      	orrs	r3, r1
 8000cba:	b29b      	uxth	r3, r3
 8000cbc:	8013      	strh	r3, [r2, #0]
 8000cbe:	2328      	movs	r3, #40	; 0x28
 8000cc0:	435d      	muls	r5, r3
 8000cc2:	1965      	adds	r5, r4, r5
 8000cc4:	002a      	movs	r2, r5
 8000cc6:	322b      	adds	r2, #43	; 0x2b
 8000cc8:	7811      	ldrb	r1, [r2, #0]
 8000cca:	18ea      	adds	r2, r5, r3
 8000ccc:	2901      	cmp	r1, #1
 8000cce:	d159      	bne.n	8000d84 <HAL_PCD_IRQHandler+0x4ac>
 8000cd0:	2300      	movs	r3, #0
 8000cd2:	0029      	movs	r1, r5
 8000cd4:	642b      	str	r3, [r5, #64]	; 0x40
 8000cd6:	3134      	adds	r1, #52	; 0x34
 8000cd8:	7809      	ldrb	r1, [r1, #0]
 8000cda:	4299      	cmp	r1, r3
 8000cdc:	d036      	beq.n	8000d4c <HAL_PCD_IRQHandler+0x474>
 8000cde:	2140      	movs	r1, #64	; 0x40
 8000ce0:	9e02      	ldr	r6, [sp, #8]
 8000ce2:	9f02      	ldr	r7, [sp, #8]
 8000ce4:	400e      	ands	r6, r1
 8000ce6:	3529      	adds	r5, #41	; 0x29
 8000ce8:	420f      	tst	r7, r1
 8000cea:	d034      	beq.n	8000d56 <HAL_PCD_IRQHandler+0x47e>
 8000cec:	7829      	ldrb	r1, [r5, #0]
 8000cee:	4299      	cmp	r1, r3
 8000cf0:	d120      	bne.n	8000d34 <HAL_PCD_IRQHandler+0x45c>
 8000cf2:	0003      	movs	r3, r0
 8000cf4:	7811      	ldrb	r1, [r2, #0]
 8000cf6:	3350      	adds	r3, #80	; 0x50
 8000cf8:	881d      	ldrh	r5, [r3, #0]
 8000cfa:	4b9d      	ldr	r3, [pc, #628]	; (8000f70 <HAL_PCD_IRQHandler+0x698>)
 8000cfc:	00c9      	lsls	r1, r1, #3
 8000cfe:	18c3      	adds	r3, r0, r3
 8000d00:	195b      	adds	r3, r3, r5
 8000d02:	18c9      	adds	r1, r1, r3
 8000d04:	880b      	ldrh	r3, [r1, #0]
 8000d06:	489c      	ldr	r0, [pc, #624]	; (8000f78 <HAL_PCD_IRQHandler+0x6a0>)
 8000d08:	059b      	lsls	r3, r3, #22
 8000d0a:	0d9b      	lsrs	r3, r3, #22
 8000d0c:	800b      	strh	r3, [r1, #0]
 8000d0e:	880b      	ldrh	r3, [r1, #0]
 8000d10:	4303      	orrs	r3, r0
 8000d12:	b29b      	uxth	r3, r3
 8000d14:	e019      	b.n	8000d4a <HAL_PCD_IRQHandler+0x472>
 8000d16:	4999      	ldr	r1, [pc, #612]	; (8000f7c <HAL_PCD_IRQHandler+0x6a4>)
 8000d18:	1852      	adds	r2, r2, r1
 8000d1a:	8812      	ldrh	r2, [r2, #0]
 8000d1c:	0592      	lsls	r2, r2, #22
 8000d1e:	0d95      	lsrs	r5, r2, #22
 8000d20:	2a00      	cmp	r2, #0
 8000d22:	d09c      	beq.n	8000c5e <HAL_PCD_IRQHandler+0x386>
 8000d24:	e76b      	b.n	8000bfe <HAL_PCD_IRQHandler+0x326>
 8000d26:	3169      	adds	r1, #105	; 0x69
 8000d28:	31ff      	adds	r1, #255	; 0xff
 8000d2a:	6820      	ldr	r0, [r4, #0]
 8000d2c:	1861      	adds	r1, r4, r1
 8000d2e:	f001 fa7b 	bl	8002228 <USB_EPStartXfer>
 8000d32:	e7b5      	b.n	8000ca0 <HAL_PCD_IRQHandler+0x3c8>
 8000d34:	2901      	cmp	r1, #1
 8000d36:	d109      	bne.n	8000d4c <HAL_PCD_IRQHandler+0x474>
 8000d38:	0001      	movs	r1, r0
 8000d3a:	4e8d      	ldr	r6, [pc, #564]	; (8000f70 <HAL_PCD_IRQHandler+0x698>)
 8000d3c:	3150      	adds	r1, #80	; 0x50
 8000d3e:	880d      	ldrh	r5, [r1, #0]
 8000d40:	7811      	ldrb	r1, [r2, #0]
 8000d42:	1980      	adds	r0, r0, r6
 8000d44:	00c9      	lsls	r1, r1, #3
 8000d46:	1940      	adds	r0, r0, r5
 8000d48:	1809      	adds	r1, r1, r0
 8000d4a:	800b      	strh	r3, [r1, #0]
 8000d4c:	7811      	ldrb	r1, [r2, #0]
 8000d4e:	0020      	movs	r0, r4
 8000d50:	f002 fb7e 	bl	8003450 <HAL_PCD_DataInStageCallback>
 8000d54:	e5ce      	b.n	80008f4 <HAL_PCD_IRQHandler+0x1c>
 8000d56:	782b      	ldrb	r3, [r5, #0]
 8000d58:	2b00      	cmp	r3, #0
 8000d5a:	d106      	bne.n	8000d6a <HAL_PCD_IRQHandler+0x492>
 8000d5c:	0003      	movs	r3, r0
 8000d5e:	7811      	ldrb	r1, [r2, #0]
 8000d60:	3350      	adds	r3, #80	; 0x50
 8000d62:	881d      	ldrh	r5, [r3, #0]
 8000d64:	00c9      	lsls	r1, r1, #3
 8000d66:	4b85      	ldr	r3, [pc, #532]	; (8000f7c <HAL_PCD_IRQHandler+0x6a4>)
 8000d68:	e7c9      	b.n	8000cfe <HAL_PCD_IRQHandler+0x426>
 8000d6a:	2b01      	cmp	r3, #1
 8000d6c:	d1ee      	bne.n	8000d4c <HAL_PCD_IRQHandler+0x474>
 8000d6e:	0003      	movs	r3, r0
 8000d70:	4d82      	ldr	r5, [pc, #520]	; (8000f7c <HAL_PCD_IRQHandler+0x6a4>)
 8000d72:	3350      	adds	r3, #80	; 0x50
 8000d74:	8819      	ldrh	r1, [r3, #0]
 8000d76:	7813      	ldrb	r3, [r2, #0]
 8000d78:	1940      	adds	r0, r0, r5
 8000d7a:	00db      	lsls	r3, r3, #3
 8000d7c:	1840      	adds	r0, r0, r1
 8000d7e:	181b      	adds	r3, r3, r0
 8000d80:	801e      	strh	r6, [r3, #0]
 8000d82:	e7e3      	b.n	8000d4c <HAL_PCD_IRQHandler+0x474>
 8000d84:	7812      	ldrb	r2, [r2, #0]
 8000d86:	9f02      	ldr	r7, [sp, #8]
 8000d88:	9203      	str	r2, [sp, #12]
 8000d8a:	00d2      	lsls	r2, r2, #3
 8000d8c:	9200      	str	r2, [sp, #0]
 8000d8e:	2280      	movs	r2, #128	; 0x80
 8000d90:	9902      	ldr	r1, [sp, #8]
 8000d92:	0052      	lsls	r2, r2, #1
 8000d94:	6c2e      	ldr	r6, [r5, #64]	; 0x40
 8000d96:	4017      	ands	r7, r2
 8000d98:	4211      	tst	r1, r2
 8000d9a:	d11e      	bne.n	8000dda <HAL_PCD_IRQHandler+0x502>
 8000d9c:	0002      	movs	r2, r0
 8000d9e:	3250      	adds	r2, #80	; 0x50
 8000da0:	8812      	ldrh	r2, [r2, #0]
 8000da2:	9900      	ldr	r1, [sp, #0]
 8000da4:	1882      	adds	r2, r0, r2
 8000da6:	1852      	adds	r2, r2, r1
 8000da8:	4971      	ldr	r1, [pc, #452]	; (8000f70 <HAL_PCD_IRQHandler+0x698>)
 8000daa:	1852      	adds	r2, r2, r1
 8000dac:	8812      	ldrh	r2, [r2, #0]
 8000dae:	0592      	lsls	r2, r2, #22
 8000db0:	0d92      	lsrs	r2, r2, #22
 8000db2:	42b2      	cmp	r2, r6
 8000db4:	d302      	bcc.n	8000dbc <HAL_PCD_IRQHandler+0x4e4>
 8000db6:	9903      	ldr	r1, [sp, #12]
 8000db8:	642f      	str	r7, [r5, #64]	; 0x40
 8000dba:	e7c8      	b.n	8000d4e <HAL_PCD_IRQHandler+0x476>
 8000dbc:	6be9      	ldr	r1, [r5, #60]	; 0x3c
 8000dbe:	1ab6      	subs	r6, r6, r2
 8000dc0:	1889      	adds	r1, r1, r2
 8000dc2:	63e9      	str	r1, [r5, #60]	; 0x3c
 8000dc4:	6c69      	ldr	r1, [r5, #68]	; 0x44
 8000dc6:	642e      	str	r6, [r5, #64]	; 0x40
 8000dc8:	188a      	adds	r2, r1, r2
 8000dca:	9901      	ldr	r1, [sp, #4]
 8000dcc:	646a      	str	r2, [r5, #68]	; 0x44
 8000dce:	3101      	adds	r1, #1
 8000dd0:	4359      	muls	r1, r3
 8000dd2:	1861      	adds	r1, r4, r1
 8000dd4:	f001 fa28 	bl	8002228 <USB_EPStartXfer>
 8000dd8:	e58c      	b.n	80008f4 <HAL_PCD_IRQHandler+0x1c>
 8000dda:	2240      	movs	r2, #64	; 0x40
 8000ddc:	0003      	movs	r3, r0
 8000dde:	9f02      	ldr	r7, [sp, #8]
 8000de0:	9902      	ldr	r1, [sp, #8]
 8000de2:	4017      	ands	r7, r2
 8000de4:	3350      	adds	r3, #80	; 0x50
 8000de6:	4211      	tst	r1, r2
 8000de8:	d100      	bne.n	8000dec <HAL_PCD_IRQHandler+0x514>
 8000dea:	e0dc      	b.n	8000fa6 <HAL_PCD_IRQHandler+0x6ce>
 8000dec:	4960      	ldr	r1, [pc, #384]	; (8000f70 <HAL_PCD_IRQHandler+0x698>)
 8000dee:	881a      	ldrh	r2, [r3, #0]
 8000df0:	1847      	adds	r7, r0, r1
 8000df2:	9900      	ldr	r1, [sp, #0]
 8000df4:	18ba      	adds	r2, r7, r2
 8000df6:	5a52      	ldrh	r2, [r2, r1]
 8000df8:	0592      	lsls	r2, r2, #22
 8000dfa:	0d92      	lsrs	r2, r2, #22
 8000dfc:	4694      	mov	ip, r2
 8000dfe:	2200      	movs	r2, #0
 8000e00:	45b4      	cmp	ip, r6
 8000e02:	d201      	bcs.n	8000e08 <HAL_PCD_IRQHandler+0x530>
 8000e04:	4662      	mov	r2, ip
 8000e06:	1ab2      	subs	r2, r6, r2
 8000e08:	2628      	movs	r6, #40	; 0x28
 8000e0a:	9901      	ldr	r1, [sp, #4]
 8000e0c:	434e      	muls	r6, r1
 8000e0e:	19a6      	adds	r6, r4, r6
 8000e10:	6432      	str	r2, [r6, #64]	; 0x40
 8000e12:	2680      	movs	r6, #128	; 0x80
 8000e14:	9902      	ldr	r1, [sp, #8]
 8000e16:	01f6      	lsls	r6, r6, #7
 8000e18:	4031      	ands	r1, r6
 8000e1a:	000e      	movs	r6, r1
 8000e1c:	2a00      	cmp	r2, #0
 8000e1e:	d14a      	bne.n	8000eb6 <HAL_PCD_IRQHandler+0x5de>
 8000e20:	2129      	movs	r1, #41	; 0x29
 8000e22:	468c      	mov	ip, r1
 8000e24:	44ac      	add	ip, r5
 8000e26:	4661      	mov	r1, ip
 8000e28:	7809      	ldrb	r1, [r1, #0]
 8000e2a:	2900      	cmp	r1, #0
 8000e2c:	d12e      	bne.n	8000e8c <HAL_PCD_IRQHandler+0x5b4>
 8000e2e:	881a      	ldrh	r2, [r3, #0]
 8000e30:	9900      	ldr	r1, [sp, #0]
 8000e32:	18ba      	adds	r2, r7, r2
 8000e34:	1852      	adds	r2, r2, r1
 8000e36:	8817      	ldrh	r7, [r2, #0]
 8000e38:	494f      	ldr	r1, [pc, #316]	; (8000f78 <HAL_PCD_IRQHandler+0x6a0>)
 8000e3a:	05bf      	lsls	r7, r7, #22
 8000e3c:	0dbf      	lsrs	r7, r7, #22
 8000e3e:	8017      	strh	r7, [r2, #0]
 8000e40:	8817      	ldrh	r7, [r2, #0]
 8000e42:	430f      	orrs	r7, r1
 8000e44:	b2bf      	uxth	r7, r7
 8000e46:	8017      	strh	r7, [r2, #0]
 8000e48:	4a4c      	ldr	r2, [pc, #304]	; (8000f7c <HAL_PCD_IRQHandler+0x6a4>)
 8000e4a:	881b      	ldrh	r3, [r3, #0]
 8000e4c:	1880      	adds	r0, r0, r2
 8000e4e:	18c0      	adds	r0, r0, r3
 8000e50:	9b00      	ldr	r3, [sp, #0]
 8000e52:	18c0      	adds	r0, r0, r3
 8000e54:	8803      	ldrh	r3, [r0, #0]
 8000e56:	059b      	lsls	r3, r3, #22
 8000e58:	0d9b      	lsrs	r3, r3, #22
 8000e5a:	8003      	strh	r3, [r0, #0]
 8000e5c:	8803      	ldrh	r3, [r0, #0]
 8000e5e:	430b      	orrs	r3, r1
 8000e60:	b29b      	uxth	r3, r3
 8000e62:	8003      	strh	r3, [r0, #0]
 8000e64:	0020      	movs	r0, r4
 8000e66:	9903      	ldr	r1, [sp, #12]
 8000e68:	f002 faf2 	bl	8003450 <HAL_PCD_DataInStageCallback>
 8000e6c:	2e00      	cmp	r6, #0
 8000e6e:	d100      	bne.n	8000e72 <HAL_PCD_IRQHandler+0x59a>
 8000e70:	e0d8      	b.n	8001024 <HAL_PCD_IRQHandler+0x74c>
 8000e72:	002b      	movs	r3, r5
 8000e74:	3328      	adds	r3, #40	; 0x28
 8000e76:	781b      	ldrb	r3, [r3, #0]
 8000e78:	6822      	ldr	r2, [r4, #0]
 8000e7a:	009b      	lsls	r3, r3, #2
 8000e7c:	18d2      	adds	r2, r2, r3
 8000e7e:	8813      	ldrh	r3, [r2, #0]
 8000e80:	4939      	ldr	r1, [pc, #228]	; (8000f68 <HAL_PCD_IRQHandler+0x690>)
 8000e82:	400b      	ands	r3, r1
 8000e84:	493e      	ldr	r1, [pc, #248]	; (8000f80 <HAL_PCD_IRQHandler+0x6a8>)
 8000e86:	430b      	orrs	r3, r1
 8000e88:	8013      	strh	r3, [r2, #0]
 8000e8a:	e0cb      	b.n	8001024 <HAL_PCD_IRQHandler+0x74c>
 8000e8c:	000b      	movs	r3, r1
 8000e8e:	2901      	cmp	r1, #1
 8000e90:	d1e8      	bne.n	8000e64 <HAL_PCD_IRQHandler+0x58c>
 8000e92:	334f      	adds	r3, #79	; 0x4f
 8000e94:	469c      	mov	ip, r3
 8000e96:	4484      	add	ip, r0
 8000e98:	4663      	mov	r3, ip
 8000e9a:	881b      	ldrh	r3, [r3, #0]
 8000e9c:	9900      	ldr	r1, [sp, #0]
 8000e9e:	18fb      	adds	r3, r7, r3
 8000ea0:	185b      	adds	r3, r3, r1
 8000ea2:	801a      	strh	r2, [r3, #0]
 8000ea4:	4663      	mov	r3, ip
 8000ea6:	4935      	ldr	r1, [pc, #212]	; (8000f7c <HAL_PCD_IRQHandler+0x6a4>)
 8000ea8:	881b      	ldrh	r3, [r3, #0]
 8000eaa:	1840      	adds	r0, r0, r1
 8000eac:	18c0      	adds	r0, r0, r3
 8000eae:	9b00      	ldr	r3, [sp, #0]
 8000eb0:	18c0      	adds	r0, r0, r3
 8000eb2:	8002      	strh	r2, [r0, #0]
 8000eb4:	e7d6      	b.n	8000e64 <HAL_PCD_IRQHandler+0x58c>
 8000eb6:	2900      	cmp	r1, #0
 8000eb8:	d008      	beq.n	8000ecc <HAL_PCD_IRQHandler+0x5f4>
 8000eba:	9b03      	ldr	r3, [sp, #12]
 8000ebc:	0099      	lsls	r1, r3, #2
 8000ebe:	1841      	adds	r1, r0, r1
 8000ec0:	880a      	ldrh	r2, [r1, #0]
 8000ec2:	4b29      	ldr	r3, [pc, #164]	; (8000f68 <HAL_PCD_IRQHandler+0x690>)
 8000ec4:	4013      	ands	r3, r2
 8000ec6:	4a2e      	ldr	r2, [pc, #184]	; (8000f80 <HAL_PCD_IRQHandler+0x6a8>)
 8000ec8:	4313      	orrs	r3, r2
 8000eca:	800b      	strh	r3, [r1, #0]
 8000ecc:	2328      	movs	r3, #40	; 0x28
 8000ece:	9a01      	ldr	r2, [sp, #4]
 8000ed0:	4353      	muls	r3, r2
 8000ed2:	18e3      	adds	r3, r4, r3
 8000ed4:	001e      	movs	r6, r3
 8000ed6:	364c      	adds	r6, #76	; 0x4c
 8000ed8:	7832      	ldrb	r2, [r6, #0]
 8000eda:	2a01      	cmp	r2, #1
 8000edc:	d000      	beq.n	8000ee0 <HAL_PCD_IRQHandler+0x608>
 8000ede:	e0a1      	b.n	8001024 <HAL_PCD_IRQHandler+0x74c>
 8000ee0:	6bda      	ldr	r2, [r3, #60]	; 0x3c
 8000ee2:	6c99      	ldr	r1, [r3, #72]	; 0x48
 8000ee4:	4462      	add	r2, ip
 8000ee6:	9202      	str	r2, [sp, #8]
 8000ee8:	63da      	str	r2, [r3, #60]	; 0x3c
 8000eea:	6c5a      	ldr	r2, [r3, #68]	; 0x44
 8000eec:	4462      	add	r2, ip
 8000eee:	645a      	str	r2, [r3, #68]	; 0x44
 8000ef0:	6b9a      	ldr	r2, [r3, #56]	; 0x38
 8000ef2:	4291      	cmp	r1, r2
 8000ef4:	d329      	bcc.n	8000f4a <HAL_PCD_IRQHandler+0x672>
 8000ef6:	1a89      	subs	r1, r1, r2
 8000ef8:	6499      	str	r1, [r3, #72]	; 0x48
 8000efa:	002b      	movs	r3, r5
 8000efc:	3329      	adds	r3, #41	; 0x29
 8000efe:	7819      	ldrb	r1, [r3, #0]
 8000f00:	b293      	uxth	r3, r2
 8000f02:	2900      	cmp	r1, #0
 8000f04:	d145      	bne.n	8000f92 <HAL_PCD_IRQHandler+0x6ba>
 8000f06:	0001      	movs	r1, r0
 8000f08:	3150      	adds	r1, #80	; 0x50
 8000f0a:	8809      	ldrh	r1, [r1, #0]
 8000f0c:	9e00      	ldr	r6, [sp, #0]
 8000f0e:	1879      	adds	r1, r7, r1
 8000f10:	1989      	adds	r1, r1, r6
 8000f12:	880e      	ldrh	r6, [r1, #0]
 8000f14:	05b6      	lsls	r6, r6, #22
 8000f16:	0db6      	lsrs	r6, r6, #22
 8000f18:	800e      	strh	r6, [r1, #0]
 8000f1a:	2a3e      	cmp	r2, #62	; 0x3e
 8000f1c:	d91f      	bls.n	8000f5e <HAL_PCD_IRQHandler+0x686>
 8000f1e:	271f      	movs	r7, #31
 8000f20:	0956      	lsrs	r6, r2, #5
 8000f22:	403a      	ands	r2, r7
 8000f24:	4257      	negs	r7, r2
 8000f26:	417a      	adcs	r2, r7
 8000f28:	1ab6      	subs	r6, r6, r2
 8000f2a:	880a      	ldrh	r2, [r1, #0]
 8000f2c:	02b6      	lsls	r6, r6, #10
 8000f2e:	4332      	orrs	r2, r6
 8000f30:	4e11      	ldr	r6, [pc, #68]	; (8000f78 <HAL_PCD_IRQHandler+0x6a0>)
 8000f32:	4332      	orrs	r2, r6
 8000f34:	b292      	uxth	r2, r2
 8000f36:	800a      	strh	r2, [r1, #0]
 8000f38:	2228      	movs	r2, #40	; 0x28
 8000f3a:	9901      	ldr	r1, [sp, #4]
 8000f3c:	434a      	muls	r2, r1
 8000f3e:	18a2      	adds	r2, r4, r2
 8000f40:	8e12      	ldrh	r2, [r2, #48]	; 0x30
 8000f42:	9902      	ldr	r1, [sp, #8]
 8000f44:	f001 f95b 	bl	80021fe <USB_WritePMA>
 8000f48:	e06c      	b.n	8001024 <HAL_PCD_IRQHandler+0x74c>
 8000f4a:	2900      	cmp	r1, #0
 8000f4c:	d102      	bne.n	8000f54 <HAL_PCD_IRQHandler+0x67c>
 8000f4e:	4662      	mov	r2, ip
 8000f50:	7031      	strb	r1, [r6, #0]
 8000f52:	e7d2      	b.n	8000efa <HAL_PCD_IRQHandler+0x622>
 8000f54:	2200      	movs	r2, #0
 8000f56:	7032      	strb	r2, [r6, #0]
 8000f58:	649a      	str	r2, [r3, #72]	; 0x48
 8000f5a:	000a      	movs	r2, r1
 8000f5c:	e7cd      	b.n	8000efa <HAL_PCD_IRQHandler+0x622>
 8000f5e:	2a00      	cmp	r2, #0
 8000f60:	d110      	bne.n	8000f84 <HAL_PCD_IRQHandler+0x6ac>
 8000f62:	880a      	ldrh	r2, [r1, #0]
 8000f64:	e7e4      	b.n	8000f30 <HAL_PCD_IRQHandler+0x658>
 8000f66:	46c0      	nop			; (mov r8, r8)
 8000f68:	ffff8f8f 	.word	0xffff8f8f
 8000f6c:	000080c0 	.word	0x000080c0
 8000f70:	00000402 	.word	0x00000402
 8000f74:	ffff8f0f 	.word	0xffff8f0f
 8000f78:	ffff8000 	.word	0xffff8000
 8000f7c:	00000406 	.word	0x00000406
 8000f80:	0000c080 	.word	0x0000c080
 8000f84:	2701      	movs	r7, #1
 8000f86:	0856      	lsrs	r6, r2, #1
 8000f88:	403a      	ands	r2, r7
 8000f8a:	18b6      	adds	r6, r6, r2
 8000f8c:	02b6      	lsls	r6, r6, #10
 8000f8e:	880a      	ldrh	r2, [r1, #0]
 8000f90:	e7cf      	b.n	8000f32 <HAL_PCD_IRQHandler+0x65a>
 8000f92:	2901      	cmp	r1, #1
 8000f94:	d1d0      	bne.n	8000f38 <HAL_PCD_IRQHandler+0x660>
 8000f96:	0002      	movs	r2, r0
 8000f98:	3250      	adds	r2, #80	; 0x50
 8000f9a:	8812      	ldrh	r2, [r2, #0]
 8000f9c:	18bf      	adds	r7, r7, r2
 8000f9e:	9a00      	ldr	r2, [sp, #0]
 8000fa0:	18bf      	adds	r7, r7, r2
 8000fa2:	803b      	strh	r3, [r7, #0]
 8000fa4:	e7c8      	b.n	8000f38 <HAL_PCD_IRQHandler+0x660>
 8000fa6:	49a9      	ldr	r1, [pc, #676]	; (800124c <HAL_PCD_IRQHandler+0x974>)
 8000fa8:	881a      	ldrh	r2, [r3, #0]
 8000faa:	468c      	mov	ip, r1
 8000fac:	9900      	ldr	r1, [sp, #0]
 8000fae:	4484      	add	ip, r0
 8000fb0:	4462      	add	r2, ip
 8000fb2:	5a52      	ldrh	r2, [r2, r1]
 8000fb4:	0592      	lsls	r2, r2, #22
 8000fb6:	0d92      	lsrs	r2, r2, #22
 8000fb8:	42b2      	cmp	r2, r6
 8000fba:	d800      	bhi.n	8000fbe <HAL_PCD_IRQHandler+0x6e6>
 8000fbc:	1ab7      	subs	r7, r6, r2
 8000fbe:	2628      	movs	r6, #40	; 0x28
 8000fc0:	9901      	ldr	r1, [sp, #4]
 8000fc2:	434e      	muls	r6, r1
 8000fc4:	19a6      	adds	r6, r4, r6
 8000fc6:	6437      	str	r7, [r6, #64]	; 0x40
 8000fc8:	2680      	movs	r6, #128	; 0x80
 8000fca:	9902      	ldr	r1, [sp, #8]
 8000fcc:	01f6      	lsls	r6, r6, #7
 8000fce:	4031      	ands	r1, r6
 8000fd0:	000e      	movs	r6, r1
 8000fd2:	2f00      	cmp	r7, #0
 8000fd4:	d140      	bne.n	8001058 <HAL_PCD_IRQHandler+0x780>
 8000fd6:	002a      	movs	r2, r5
 8000fd8:	3229      	adds	r2, #41	; 0x29
 8000fda:	7812      	ldrb	r2, [r2, #0]
 8000fdc:	2a00      	cmp	r2, #0
 8000fde:	d12b      	bne.n	8001038 <HAL_PCD_IRQHandler+0x760>
 8000fe0:	499b      	ldr	r1, [pc, #620]	; (8001250 <HAL_PCD_IRQHandler+0x978>)
 8000fe2:	881a      	ldrh	r2, [r3, #0]
 8000fe4:	1840      	adds	r0, r0, r1
 8000fe6:	1880      	adds	r0, r0, r2
 8000fe8:	9a00      	ldr	r2, [sp, #0]
 8000fea:	499a      	ldr	r1, [pc, #616]	; (8001254 <HAL_PCD_IRQHandler+0x97c>)
 8000fec:	1880      	adds	r0, r0, r2
 8000fee:	8802      	ldrh	r2, [r0, #0]
 8000ff0:	0592      	lsls	r2, r2, #22
 8000ff2:	0d92      	lsrs	r2, r2, #22
 8000ff4:	8002      	strh	r2, [r0, #0]
 8000ff6:	8802      	ldrh	r2, [r0, #0]
 8000ff8:	430a      	orrs	r2, r1
 8000ffa:	b292      	uxth	r2, r2
 8000ffc:	8002      	strh	r2, [r0, #0]
 8000ffe:	881b      	ldrh	r3, [r3, #0]
 8001000:	9a00      	ldr	r2, [sp, #0]
 8001002:	4463      	add	r3, ip
 8001004:	189b      	adds	r3, r3, r2
 8001006:	881a      	ldrh	r2, [r3, #0]
 8001008:	0592      	lsls	r2, r2, #22
 800100a:	0d92      	lsrs	r2, r2, #22
 800100c:	801a      	strh	r2, [r3, #0]
 800100e:	881a      	ldrh	r2, [r3, #0]
 8001010:	430a      	orrs	r2, r1
 8001012:	b292      	uxth	r2, r2
 8001014:	801a      	strh	r2, [r3, #0]
 8001016:	0020      	movs	r0, r4
 8001018:	9903      	ldr	r1, [sp, #12]
 800101a:	f002 fa19 	bl	8003450 <HAL_PCD_DataInStageCallback>
 800101e:	2e00      	cmp	r6, #0
 8001020:	d100      	bne.n	8001024 <HAL_PCD_IRQHandler+0x74c>
 8001022:	e726      	b.n	8000e72 <HAL_PCD_IRQHandler+0x59a>
 8001024:	3528      	adds	r5, #40	; 0x28
 8001026:	782b      	ldrb	r3, [r5, #0]
 8001028:	6821      	ldr	r1, [r4, #0]
 800102a:	009b      	lsls	r3, r3, #2
 800102c:	18c9      	adds	r1, r1, r3
 800102e:	880a      	ldrh	r2, [r1, #0]
 8001030:	4b89      	ldr	r3, [pc, #548]	; (8001258 <HAL_PCD_IRQHandler+0x980>)
 8001032:	401a      	ands	r2, r3
 8001034:	2330      	movs	r3, #48	; 0x30
 8001036:	e526      	b.n	8000a86 <HAL_PCD_IRQHandler+0x1ae>
 8001038:	2a01      	cmp	r2, #1
 800103a:	d1ec      	bne.n	8001016 <HAL_PCD_IRQHandler+0x73e>
 800103c:	0003      	movs	r3, r0
 800103e:	4984      	ldr	r1, [pc, #528]	; (8001250 <HAL_PCD_IRQHandler+0x978>)
 8001040:	3350      	adds	r3, #80	; 0x50
 8001042:	881a      	ldrh	r2, [r3, #0]
 8001044:	1840      	adds	r0, r0, r1
 8001046:	1880      	adds	r0, r0, r2
 8001048:	9a00      	ldr	r2, [sp, #0]
 800104a:	1880      	adds	r0, r0, r2
 800104c:	8007      	strh	r7, [r0, #0]
 800104e:	881b      	ldrh	r3, [r3, #0]
 8001050:	4463      	add	r3, ip
 8001052:	189b      	adds	r3, r3, r2
 8001054:	801f      	strh	r7, [r3, #0]
 8001056:	e7de      	b.n	8001016 <HAL_PCD_IRQHandler+0x73e>
 8001058:	2900      	cmp	r1, #0
 800105a:	d108      	bne.n	800106e <HAL_PCD_IRQHandler+0x796>
 800105c:	9b03      	ldr	r3, [sp, #12]
 800105e:	0099      	lsls	r1, r3, #2
 8001060:	1841      	adds	r1, r0, r1
 8001062:	880e      	ldrh	r6, [r1, #0]
 8001064:	4b7d      	ldr	r3, [pc, #500]	; (800125c <HAL_PCD_IRQHandler+0x984>)
 8001066:	4033      	ands	r3, r6
 8001068:	4e7d      	ldr	r6, [pc, #500]	; (8001260 <HAL_PCD_IRQHandler+0x988>)
 800106a:	4333      	orrs	r3, r6
 800106c:	800b      	strh	r3, [r1, #0]
 800106e:	2328      	movs	r3, #40	; 0x28
 8001070:	9901      	ldr	r1, [sp, #4]
 8001072:	434b      	muls	r3, r1
 8001074:	18e3      	adds	r3, r4, r3
 8001076:	001f      	movs	r7, r3
 8001078:	374c      	adds	r7, #76	; 0x4c
 800107a:	7839      	ldrb	r1, [r7, #0]
 800107c:	2901      	cmp	r1, #1
 800107e:	d1d1      	bne.n	8001024 <HAL_PCD_IRQHandler+0x74c>
 8001080:	6bd9      	ldr	r1, [r3, #60]	; 0x3c
 8001082:	6c9e      	ldr	r6, [r3, #72]	; 0x48
 8001084:	1889      	adds	r1, r1, r2
 8001086:	9102      	str	r1, [sp, #8]
 8001088:	63d9      	str	r1, [r3, #60]	; 0x3c
 800108a:	6c59      	ldr	r1, [r3, #68]	; 0x44
 800108c:	1889      	adds	r1, r1, r2
 800108e:	6459      	str	r1, [r3, #68]	; 0x44
 8001090:	6b99      	ldr	r1, [r3, #56]	; 0x38
 8001092:	428e      	cmp	r6, r1
 8001094:	d326      	bcc.n	80010e4 <HAL_PCD_IRQHandler+0x80c>
 8001096:	1a76      	subs	r6, r6, r1
 8001098:	649e      	str	r6, [r3, #72]	; 0x48
 800109a:	002b      	movs	r3, r5
 800109c:	3329      	adds	r3, #41	; 0x29
 800109e:	781a      	ldrb	r2, [r3, #0]
 80010a0:	b28b      	uxth	r3, r1
 80010a2:	2a00      	cmp	r2, #0
 80010a4:	d133      	bne.n	800110e <HAL_PCD_IRQHandler+0x836>
 80010a6:	0002      	movs	r2, r0
 80010a8:	3250      	adds	r2, #80	; 0x50
 80010aa:	8812      	ldrh	r2, [r2, #0]
 80010ac:	9e00      	ldr	r6, [sp, #0]
 80010ae:	4462      	add	r2, ip
 80010b0:	1992      	adds	r2, r2, r6
 80010b2:	8816      	ldrh	r6, [r2, #0]
 80010b4:	05b6      	lsls	r6, r6, #22
 80010b6:	0db6      	lsrs	r6, r6, #22
 80010b8:	8016      	strh	r6, [r2, #0]
 80010ba:	293e      	cmp	r1, #62	; 0x3e
 80010bc:	d91c      	bls.n	80010f8 <HAL_PCD_IRQHandler+0x820>
 80010be:	271f      	movs	r7, #31
 80010c0:	094e      	lsrs	r6, r1, #5
 80010c2:	4039      	ands	r1, r7
 80010c4:	424f      	negs	r7, r1
 80010c6:	4179      	adcs	r1, r7
 80010c8:	1a76      	subs	r6, r6, r1
 80010ca:	8811      	ldrh	r1, [r2, #0]
 80010cc:	02b6      	lsls	r6, r6, #10
 80010ce:	4331      	orrs	r1, r6
 80010d0:	4e60      	ldr	r6, [pc, #384]	; (8001254 <HAL_PCD_IRQHandler+0x97c>)
 80010d2:	4331      	orrs	r1, r6
 80010d4:	b289      	uxth	r1, r1
 80010d6:	8011      	strh	r1, [r2, #0]
 80010d8:	2228      	movs	r2, #40	; 0x28
 80010da:	9901      	ldr	r1, [sp, #4]
 80010dc:	434a      	muls	r2, r1
 80010de:	18a2      	adds	r2, r4, r2
 80010e0:	8e52      	ldrh	r2, [r2, #50]	; 0x32
 80010e2:	e72e      	b.n	8000f42 <HAL_PCD_IRQHandler+0x66a>
 80010e4:	2e00      	cmp	r6, #0
 80010e6:	d102      	bne.n	80010ee <HAL_PCD_IRQHandler+0x816>
 80010e8:	0011      	movs	r1, r2
 80010ea:	703e      	strb	r6, [r7, #0]
 80010ec:	e7d5      	b.n	800109a <HAL_PCD_IRQHandler+0x7c2>
 80010ee:	2200      	movs	r2, #0
 80010f0:	0031      	movs	r1, r6
 80010f2:	649a      	str	r2, [r3, #72]	; 0x48
 80010f4:	703a      	strb	r2, [r7, #0]
 80010f6:	e7d0      	b.n	800109a <HAL_PCD_IRQHandler+0x7c2>
 80010f8:	2900      	cmp	r1, #0
 80010fa:	d101      	bne.n	8001100 <HAL_PCD_IRQHandler+0x828>
 80010fc:	8811      	ldrh	r1, [r2, #0]
 80010fe:	e7e7      	b.n	80010d0 <HAL_PCD_IRQHandler+0x7f8>
 8001100:	2701      	movs	r7, #1
 8001102:	084e      	lsrs	r6, r1, #1
 8001104:	4039      	ands	r1, r7
 8001106:	1876      	adds	r6, r6, r1
 8001108:	02b6      	lsls	r6, r6, #10
 800110a:	8811      	ldrh	r1, [r2, #0]
 800110c:	e7e1      	b.n	80010d2 <HAL_PCD_IRQHandler+0x7fa>
 800110e:	2a01      	cmp	r2, #1
 8001110:	d1e2      	bne.n	80010d8 <HAL_PCD_IRQHandler+0x800>
 8001112:	0002      	movs	r2, r0
 8001114:	3250      	adds	r2, #80	; 0x50
 8001116:	8812      	ldrh	r2, [r2, #0]
 8001118:	9900      	ldr	r1, [sp, #0]
 800111a:	4462      	add	r2, ip
 800111c:	1852      	adds	r2, r2, r1
 800111e:	8013      	strh	r3, [r2, #0]
 8001120:	e7da      	b.n	80010d8 <HAL_PCD_IRQHandler+0x800>
 8001122:	0543      	lsls	r3, r0, #21
 8001124:	d50e      	bpl.n	8001144 <HAL_PCD_IRQHandler+0x86c>
 8001126:	6823      	ldr	r3, [r4, #0]
 8001128:	494e      	ldr	r1, [pc, #312]	; (8001264 <HAL_PCD_IRQHandler+0x98c>)
 800112a:	3306      	adds	r3, #6
 800112c:	8fda      	ldrh	r2, [r3, #62]	; 0x3e
 800112e:	0020      	movs	r0, r4
 8001130:	400a      	ands	r2, r1
 8001132:	87da      	strh	r2, [r3, #62]	; 0x3e
 8001134:	f002 f99e 	bl	8003474 <HAL_PCD_ResetCallback>
 8001138:	0029      	movs	r1, r5
 800113a:	0020      	movs	r0, r4
 800113c:	f7ff fbb9 	bl	80008b2 <HAL_PCD_SetAddress>
 8001140:	f7ff fbde 	bl	8000900 <HAL_PCD_IRQHandler+0x28>
 8001144:	0443      	lsls	r3, r0, #17
 8001146:	d507      	bpl.n	8001158 <HAL_PCD_IRQHandler+0x880>
 8001148:	6823      	ldr	r3, [r4, #0]
 800114a:	4947      	ldr	r1, [pc, #284]	; (8001268 <HAL_PCD_IRQHandler+0x990>)
 800114c:	3306      	adds	r3, #6
 800114e:	8fda      	ldrh	r2, [r3, #62]	; 0x3e
 8001150:	400a      	ands	r2, r1
 8001152:	87da      	strh	r2, [r3, #62]	; 0x3e
 8001154:	f7ff fbd4 	bl	8000900 <HAL_PCD_IRQHandler+0x28>
 8001158:	2380      	movs	r3, #128	; 0x80
 800115a:	0001      	movs	r1, r0
 800115c:	019b      	lsls	r3, r3, #6
 800115e:	4019      	ands	r1, r3
 8001160:	4218      	tst	r0, r3
 8001162:	d004      	beq.n	800116e <HAL_PCD_IRQHandler+0x896>
 8001164:	6823      	ldr	r3, [r4, #0]
 8001166:	4941      	ldr	r1, [pc, #260]	; (800126c <HAL_PCD_IRQHandler+0x994>)
 8001168:	3306      	adds	r3, #6
 800116a:	8fda      	ldrh	r2, [r3, #62]	; 0x3e
 800116c:	e7f0      	b.n	8001150 <HAL_PCD_IRQHandler+0x878>
 800116e:	04c3      	lsls	r3, r0, #19
 8001170:	d51a      	bpl.n	80011a8 <HAL_PCD_IRQHandler+0x8d0>
 8001172:	2004      	movs	r0, #4
 8001174:	6823      	ldr	r3, [r4, #0]
 8001176:	3302      	adds	r3, #2
 8001178:	8fda      	ldrh	r2, [r3, #62]	; 0x3e
 800117a:	4382      	bics	r2, r0
 800117c:	87da      	strh	r2, [r3, #62]	; 0x3e
 800117e:	8fda      	ldrh	r2, [r3, #62]	; 0x3e
 8001180:	1800      	adds	r0, r0, r0
 8001182:	4382      	bics	r2, r0
 8001184:	87da      	strh	r2, [r3, #62]	; 0x3e
 8001186:	23b8      	movs	r3, #184	; 0xb8
 8001188:	009b      	lsls	r3, r3, #2
 800118a:	5ce2      	ldrb	r2, [r4, r3]
 800118c:	2a01      	cmp	r2, #1
 800118e:	d103      	bne.n	8001198 <HAL_PCD_IRQHandler+0x8c0>
 8001190:	0020      	movs	r0, r4
 8001192:	54e1      	strb	r1, [r4, r3]
 8001194:	f000 f997 	bl	80014c6 <HAL_PCDEx_LPM_Callback>
 8001198:	0020      	movs	r0, r4
 800119a:	f002 f98f 	bl	80034bc <HAL_PCD_ResumeCallback>
 800119e:	6823      	ldr	r3, [r4, #0]
 80011a0:	4933      	ldr	r1, [pc, #204]	; (8001270 <HAL_PCD_IRQHandler+0x998>)
 80011a2:	3306      	adds	r3, #6
 80011a4:	8fda      	ldrh	r2, [r3, #62]	; 0x3e
 80011a6:	e7d3      	b.n	8001150 <HAL_PCD_IRQHandler+0x878>
 80011a8:	0503      	lsls	r3, r0, #20
 80011aa:	d513      	bpl.n	80011d4 <HAL_PCD_IRQHandler+0x8fc>
 80011ac:	2108      	movs	r1, #8
 80011ae:	6823      	ldr	r3, [r4, #0]
 80011b0:	1c9a      	adds	r2, r3, #2
 80011b2:	8fd0      	ldrh	r0, [r2, #62]	; 0x3e
 80011b4:	3306      	adds	r3, #6
 80011b6:	4301      	orrs	r1, r0
 80011b8:	87d1      	strh	r1, [r2, #62]	; 0x3e
 80011ba:	8fd9      	ldrh	r1, [r3, #62]	; 0x3e
 80011bc:	482d      	ldr	r0, [pc, #180]	; (8001274 <HAL_PCD_IRQHandler+0x99c>)
 80011be:	4001      	ands	r1, r0
 80011c0:	87d9      	strh	r1, [r3, #62]	; 0x3e
 80011c2:	2304      	movs	r3, #4
 80011c4:	8fd1      	ldrh	r1, [r2, #62]	; 0x3e
 80011c6:	430b      	orrs	r3, r1
 80011c8:	87d3      	strh	r3, [r2, #62]	; 0x3e
 80011ca:	0020      	movs	r0, r4
 80011cc:	f002 f964 	bl	8003498 <HAL_PCD_SuspendCallback>
 80011d0:	f7ff fb96 	bl	8000900 <HAL_PCD_IRQHandler+0x28>
 80011d4:	2580      	movs	r5, #128	; 0x80
 80011d6:	4228      	tst	r0, r5
 80011d8:	d021      	beq.n	800121e <HAL_PCD_IRQHandler+0x946>
 80011da:	20b8      	movs	r0, #184	; 0xb8
 80011dc:	6823      	ldr	r3, [r4, #0]
 80011de:	0080      	lsls	r0, r0, #2
 80011e0:	1d99      	adds	r1, r3, #6
 80011e2:	8fca      	ldrh	r2, [r1, #62]	; 0x3e
 80011e4:	43aa      	bics	r2, r5
 80011e6:	87ca      	strh	r2, [r1, #62]	; 0x3e
 80011e8:	5c22      	ldrb	r2, [r4, r0]
 80011ea:	2a00      	cmp	r2, #0
 80011ec:	d1ed      	bne.n	80011ca <HAL_PCD_IRQHandler+0x8f2>
 80011ee:	1c99      	adds	r1, r3, #2
 80011f0:	8fcd      	ldrh	r5, [r1, #62]	; 0x3e
 80011f2:	3204      	adds	r2, #4
 80011f4:	432a      	orrs	r2, r5
 80011f6:	87ca      	strh	r2, [r1, #62]	; 0x3e
 80011f8:	2208      	movs	r2, #8
 80011fa:	8fcd      	ldrh	r5, [r1, #62]	; 0x3e
 80011fc:	3354      	adds	r3, #84	; 0x54
 80011fe:	432a      	orrs	r2, r5
 8001200:	87ca      	strh	r2, [r1, #62]	; 0x3e
 8001202:	2101      	movs	r1, #1
 8001204:	223c      	movs	r2, #60	; 0x3c
 8001206:	5421      	strb	r1, [r4, r0]
 8001208:	881b      	ldrh	r3, [r3, #0]
 800120a:	0020      	movs	r0, r4
 800120c:	089b      	lsrs	r3, r3, #2
 800120e:	4013      	ands	r3, r2
 8001210:	22b9      	movs	r2, #185	; 0xb9
 8001212:	0092      	lsls	r2, r2, #2
 8001214:	50a3      	str	r3, [r4, r2]
 8001216:	f000 f956 	bl	80014c6 <HAL_PCDEx_LPM_Callback>
 800121a:	f7ff fb71 	bl	8000900 <HAL_PCD_IRQHandler+0x28>
 800121e:	0583      	lsls	r3, r0, #22
 8001220:	d50a      	bpl.n	8001238 <HAL_PCD_IRQHandler+0x960>
 8001222:	6823      	ldr	r3, [r4, #0]
 8001224:	4914      	ldr	r1, [pc, #80]	; (8001278 <HAL_PCD_IRQHandler+0x9a0>)
 8001226:	3306      	adds	r3, #6
 8001228:	8fda      	ldrh	r2, [r3, #62]	; 0x3e
 800122a:	0020      	movs	r0, r4
 800122c:	400a      	ands	r2, r1
 800122e:	87da      	strh	r2, [r3, #62]	; 0x3e
 8001230:	f002 f919 	bl	8003466 <HAL_PCD_SOFCallback>
 8001234:	f7ff fb64 	bl	8000900 <HAL_PCD_IRQHandler+0x28>
 8001238:	05c0      	lsls	r0, r0, #23
 800123a:	d401      	bmi.n	8001240 <HAL_PCD_IRQHandler+0x968>
 800123c:	f7ff fb60 	bl	8000900 <HAL_PCD_IRQHandler+0x28>
 8001240:	6823      	ldr	r3, [r4, #0]
 8001242:	490e      	ldr	r1, [pc, #56]	; (800127c <HAL_PCD_IRQHandler+0x9a4>)
 8001244:	3306      	adds	r3, #6
 8001246:	8fda      	ldrh	r2, [r3, #62]	; 0x3e
 8001248:	e782      	b.n	8001150 <HAL_PCD_IRQHandler+0x878>
 800124a:	46c0      	nop			; (mov r8, r8)
 800124c:	00000406 	.word	0x00000406
 8001250:	00000402 	.word	0x00000402
 8001254:	ffff8000 	.word	0xffff8000
 8001258:	ffff8fbf 	.word	0xffff8fbf
 800125c:	ffff8f8f 	.word	0xffff8f8f
 8001260:	0000c080 	.word	0x0000c080
 8001264:	fffffbff 	.word	0xfffffbff
 8001268:	ffffbfff 	.word	0xffffbfff
 800126c:	ffffdfff 	.word	0xffffdfff
 8001270:	ffffefff 	.word	0xffffefff
 8001274:	fffff7ff 	.word	0xfffff7ff
 8001278:	fffffdff 	.word	0xfffffdff
 800127c:	fffffeff 	.word	0xfffffeff

08001280 <HAL_PCD_EP_Open>:
 8001280:	b570      	push	{r4, r5, r6, lr}
 8001282:	0005      	movs	r5, r0
 8001284:	2007      	movs	r0, #7
 8001286:	4008      	ands	r0, r1
 8001288:	b249      	sxtb	r1, r1
 800128a:	2428      	movs	r4, #40	; 0x28
 800128c:	2900      	cmp	r1, #0
 800128e:	da19      	bge.n	80012c4 <HAL_PCD_EP_Open+0x44>
 8001290:	1c41      	adds	r1, r0, #1
 8001292:	4361      	muls	r1, r4
 8001294:	3c27      	subs	r4, #39	; 0x27
 8001296:	1869      	adds	r1, r5, r1
 8001298:	704c      	strb	r4, [r1, #1]
 800129a:	7008      	strb	r0, [r1, #0]
 800129c:	610a      	str	r2, [r1, #16]
 800129e:	70cb      	strb	r3, [r1, #3]
 80012a0:	2b02      	cmp	r3, #2
 80012a2:	d101      	bne.n	80012a8 <HAL_PCD_EP_Open+0x28>
 80012a4:	2300      	movs	r3, #0
 80012a6:	710b      	strb	r3, [r1, #4]
 80012a8:	24aa      	movs	r4, #170	; 0xaa
 80012aa:	00a4      	lsls	r4, r4, #2
 80012ac:	5d2b      	ldrb	r3, [r5, r4]
 80012ae:	2002      	movs	r0, #2
 80012b0:	2b01      	cmp	r3, #1
 80012b2:	d006      	beq.n	80012c2 <HAL_PCD_EP_Open+0x42>
 80012b4:	2301      	movs	r3, #1
 80012b6:	552b      	strb	r3, [r5, r4]
 80012b8:	6828      	ldr	r0, [r5, #0]
 80012ba:	f000 fdab 	bl	8001e14 <USB_ActivateEndpoint>
 80012be:	2000      	movs	r0, #0
 80012c0:	5528      	strb	r0, [r5, r4]
 80012c2:	bd70      	pop	{r4, r5, r6, pc}
 80012c4:	4344      	muls	r4, r0
 80012c6:	0021      	movs	r1, r4
 80012c8:	2600      	movs	r6, #0
 80012ca:	192c      	adds	r4, r5, r4
 80012cc:	3169      	adds	r1, #105	; 0x69
 80012ce:	346a      	adds	r4, #106	; 0x6a
 80012d0:	31ff      	adds	r1, #255	; 0xff
 80012d2:	34ff      	adds	r4, #255	; 0xff
 80012d4:	1869      	adds	r1, r5, r1
 80012d6:	7026      	strb	r6, [r4, #0]
 80012d8:	e7df      	b.n	800129a <HAL_PCD_EP_Open+0x1a>

080012da <HAL_PCD_EP_Close>:
 80012da:	2207      	movs	r2, #7
 80012dc:	400a      	ands	r2, r1
 80012de:	b249      	sxtb	r1, r1
 80012e0:	b570      	push	{r4, r5, r6, lr}
 80012e2:	2328      	movs	r3, #40	; 0x28
 80012e4:	0004      	movs	r4, r0
 80012e6:	2900      	cmp	r1, #0
 80012e8:	da13      	bge.n	8001312 <HAL_PCD_EP_Close+0x38>
 80012ea:	1c51      	adds	r1, r2, #1
 80012ec:	4359      	muls	r1, r3
 80012ee:	3b27      	subs	r3, #39	; 0x27
 80012f0:	1841      	adds	r1, r0, r1
 80012f2:	704b      	strb	r3, [r1, #1]
 80012f4:	25aa      	movs	r5, #170	; 0xaa
 80012f6:	700a      	strb	r2, [r1, #0]
 80012f8:	00ad      	lsls	r5, r5, #2
 80012fa:	5d63      	ldrb	r3, [r4, r5]
 80012fc:	2002      	movs	r0, #2
 80012fe:	2b01      	cmp	r3, #1
 8001300:	d006      	beq.n	8001310 <HAL_PCD_EP_Close+0x36>
 8001302:	2301      	movs	r3, #1
 8001304:	5563      	strb	r3, [r4, r5]
 8001306:	6820      	ldr	r0, [r4, #0]
 8001308:	f000 fe92 	bl	8002030 <USB_DeactivateEndpoint>
 800130c:	2000      	movs	r0, #0
 800130e:	5560      	strb	r0, [r4, r5]
 8001310:	bd70      	pop	{r4, r5, r6, pc}
 8001312:	4353      	muls	r3, r2
 8001314:	0019      	movs	r1, r3
 8001316:	3169      	adds	r1, #105	; 0x69
 8001318:	31ff      	adds	r1, #255	; 0xff
 800131a:	18c3      	adds	r3, r0, r3
 800131c:	1841      	adds	r1, r0, r1
 800131e:	2000      	movs	r0, #0
 8001320:	336a      	adds	r3, #106	; 0x6a
 8001322:	33ff      	adds	r3, #255	; 0xff
 8001324:	7018      	strb	r0, [r3, #0]
 8001326:	e7e5      	b.n	80012f4 <HAL_PCD_EP_Close+0x1a>

08001328 <HAL_PCD_EP_Receive>:
 8001328:	b570      	push	{r4, r5, r6, lr}
 800132a:	2407      	movs	r4, #7
 800132c:	4021      	ands	r1, r4
 800132e:	3421      	adds	r4, #33	; 0x21
 8001330:	434c      	muls	r4, r1
 8001332:	1905      	adds	r5, r0, r4
 8001334:	002e      	movs	r6, r5
 8001336:	367d      	adds	r6, #125	; 0x7d
 8001338:	36ff      	adds	r6, #255	; 0xff
 800133a:	6032      	str	r2, [r6, #0]
 800133c:	002a      	movs	r2, r5
 800133e:	3281      	adds	r2, #129	; 0x81
 8001340:	32ff      	adds	r2, #255	; 0xff
 8001342:	6013      	str	r3, [r2, #0]
 8001344:	002b      	movs	r3, r5
 8001346:	2600      	movs	r6, #0
 8001348:	3385      	adds	r3, #133	; 0x85
 800134a:	33ff      	adds	r3, #255	; 0xff
 800134c:	3569      	adds	r5, #105	; 0x69
 800134e:	601e      	str	r6, [r3, #0]
 8001350:	35ff      	adds	r5, #255	; 0xff
 8001352:	3b1b      	subs	r3, #27
 8001354:	701e      	strb	r6, [r3, #0]
 8001356:	7029      	strb	r1, [r5, #0]
 8001358:	0021      	movs	r1, r4
 800135a:	3169      	adds	r1, #105	; 0x69
 800135c:	31ff      	adds	r1, #255	; 0xff
 800135e:	1841      	adds	r1, r0, r1
 8001360:	6800      	ldr	r0, [r0, #0]
 8001362:	f000 ff61 	bl	8002228 <USB_EPStartXfer>
 8001366:	0030      	movs	r0, r6
 8001368:	bd70      	pop	{r4, r5, r6, pc}

0800136a <HAL_PCD_EP_GetRxCount>:
 800136a:	2307      	movs	r3, #7
 800136c:	400b      	ands	r3, r1
 800136e:	2128      	movs	r1, #40	; 0x28
 8001370:	4359      	muls	r1, r3
 8001372:	1840      	adds	r0, r0, r1
 8001374:	3085      	adds	r0, #133	; 0x85
 8001376:	30ff      	adds	r0, #255	; 0xff
 8001378:	6800      	ldr	r0, [r0, #0]
 800137a:	4770      	bx	lr

0800137c <HAL_PCD_EP_Transmit>:
 800137c:	b570      	push	{r4, r5, r6, lr}
 800137e:	2628      	movs	r6, #40	; 0x28
 8001380:	2407      	movs	r4, #7
 8001382:	4021      	ands	r1, r4
 8001384:	0034      	movs	r4, r6
 8001386:	434c      	muls	r4, r1
 8001388:	1904      	adds	r4, r0, r4
 800138a:	0025      	movs	r5, r4
 800138c:	63e2      	str	r2, [r4, #60]	; 0x3c
 800138e:	2201      	movs	r2, #1
 8001390:	354c      	adds	r5, #76	; 0x4c
 8001392:	6423      	str	r3, [r4, #64]	; 0x40
 8001394:	702a      	strb	r2, [r5, #0]
 8001396:	2500      	movs	r5, #0
 8001398:	64a3      	str	r3, [r4, #72]	; 0x48
 800139a:	0023      	movs	r3, r4
 800139c:	6465      	str	r5, [r4, #68]	; 0x44
 800139e:	3329      	adds	r3, #41	; 0x29
 80013a0:	19a4      	adds	r4, r4, r6
 80013a2:	701a      	strb	r2, [r3, #0]
 80013a4:	7021      	strb	r1, [r4, #0]
 80013a6:	1889      	adds	r1, r1, r2
 80013a8:	4371      	muls	r1, r6
 80013aa:	1841      	adds	r1, r0, r1
 80013ac:	6800      	ldr	r0, [r0, #0]
 80013ae:	f000 ff3b 	bl	8002228 <USB_EPStartXfer>
 80013b2:	0028      	movs	r0, r5
 80013b4:	bd70      	pop	{r4, r5, r6, pc}

080013b6 <HAL_PCD_EP_SetStall>:
 80013b6:	2207      	movs	r2, #7
 80013b8:	6843      	ldr	r3, [r0, #4]
 80013ba:	b570      	push	{r4, r5, r6, lr}
 80013bc:	400a      	ands	r2, r1
 80013be:	0004      	movs	r4, r0
 80013c0:	2001      	movs	r0, #1
 80013c2:	429a      	cmp	r2, r3
 80013c4:	d817      	bhi.n	80013f6 <HAL_PCD_EP_SetStall+0x40>
 80013c6:	b248      	sxtb	r0, r1
 80013c8:	2328      	movs	r3, #40	; 0x28
 80013ca:	2800      	cmp	r0, #0
 80013cc:	da14      	bge.n	80013f8 <HAL_PCD_EP_SetStall+0x42>
 80013ce:	1c51      	adds	r1, r2, #1
 80013d0:	4359      	muls	r1, r3
 80013d2:	3b27      	subs	r3, #39	; 0x27
 80013d4:	1861      	adds	r1, r4, r1
 80013d6:	704b      	strb	r3, [r1, #1]
 80013d8:	2301      	movs	r3, #1
 80013da:	25aa      	movs	r5, #170	; 0xaa
 80013dc:	708b      	strb	r3, [r1, #2]
 80013de:	700a      	strb	r2, [r1, #0]
 80013e0:	00ad      	lsls	r5, r5, #2
 80013e2:	5d62      	ldrb	r2, [r4, r5]
 80013e4:	2002      	movs	r0, #2
 80013e6:	429a      	cmp	r2, r3
 80013e8:	d005      	beq.n	80013f6 <HAL_PCD_EP_SetStall+0x40>
 80013ea:	5563      	strb	r3, [r4, r5]
 80013ec:	6820      	ldr	r0, [r4, #0]
 80013ee:	f000 fe99 	bl	8002124 <USB_EPSetStall>
 80013f2:	2000      	movs	r0, #0
 80013f4:	5560      	strb	r0, [r4, r5]
 80013f6:	bd70      	pop	{r4, r5, r6, pc}
 80013f8:	434b      	muls	r3, r1
 80013fa:	0019      	movs	r1, r3
 80013fc:	2000      	movs	r0, #0
 80013fe:	18e3      	adds	r3, r4, r3
 8001400:	3169      	adds	r1, #105	; 0x69
 8001402:	336a      	adds	r3, #106	; 0x6a
 8001404:	31ff      	adds	r1, #255	; 0xff
 8001406:	33ff      	adds	r3, #255	; 0xff
 8001408:	1861      	adds	r1, r4, r1
 800140a:	7018      	strb	r0, [r3, #0]
 800140c:	e7e4      	b.n	80013d8 <HAL_PCD_EP_SetStall+0x22>

0800140e <HAL_PCD_EP_ClrStall>:
 800140e:	230f      	movs	r3, #15
 8001410:	6842      	ldr	r2, [r0, #4]
 8001412:	b570      	push	{r4, r5, r6, lr}
 8001414:	400b      	ands	r3, r1
 8001416:	0004      	movs	r4, r0
 8001418:	2001      	movs	r0, #1
 800141a:	4293      	cmp	r3, r2
 800141c:	d819      	bhi.n	8001452 <HAL_PCD_EP_ClrStall+0x44>
 800141e:	2207      	movs	r2, #7
 8001420:	400a      	ands	r2, r1
 8001422:	b249      	sxtb	r1, r1
 8001424:	2328      	movs	r3, #40	; 0x28
 8001426:	2900      	cmp	r1, #0
 8001428:	da14      	bge.n	8001454 <HAL_PCD_EP_ClrStall+0x46>
 800142a:	1811      	adds	r1, r2, r0
 800142c:	4359      	muls	r1, r3
 800142e:	1861      	adds	r1, r4, r1
 8001430:	7048      	strb	r0, [r1, #1]
 8001432:	2500      	movs	r5, #0
 8001434:	26aa      	movs	r6, #170	; 0xaa
 8001436:	708d      	strb	r5, [r1, #2]
 8001438:	700a      	strb	r2, [r1, #0]
 800143a:	00b6      	lsls	r6, r6, #2
 800143c:	5da3      	ldrb	r3, [r4, r6]
 800143e:	2002      	movs	r0, #2
 8001440:	2b01      	cmp	r3, #1
 8001442:	d006      	beq.n	8001452 <HAL_PCD_EP_ClrStall+0x44>
 8001444:	2301      	movs	r3, #1
 8001446:	55a3      	strb	r3, [r4, r6]
 8001448:	6820      	ldr	r0, [r4, #0]
 800144a:	f000 fe8b 	bl	8002164 <USB_EPClearStall>
 800144e:	0028      	movs	r0, r5
 8001450:	55a5      	strb	r5, [r4, r6]
 8001452:	bd70      	pop	{r4, r5, r6, pc}
 8001454:	4353      	muls	r3, r2
 8001456:	0019      	movs	r1, r3
 8001458:	2000      	movs	r0, #0
 800145a:	18e3      	adds	r3, r4, r3
 800145c:	3169      	adds	r1, #105	; 0x69
 800145e:	336a      	adds	r3, #106	; 0x6a
 8001460:	31ff      	adds	r1, #255	; 0xff
 8001462:	33ff      	adds	r3, #255	; 0xff
 8001464:	1861      	adds	r1, r4, r1
 8001466:	7018      	strb	r0, [r3, #0]
 8001468:	e7e3      	b.n	8001432 <HAL_PCD_EP_ClrStall+0x24>

0800146a <HAL_PCDEx_PMAConfig>:
 800146a:	b510      	push	{r4, lr}
 800146c:	000c      	movs	r4, r1
 800146e:	0621      	lsls	r1, r4, #24
 8001470:	d50c      	bpl.n	800148c <HAL_PCDEx_PMAConfig+0x22>
 8001472:	2107      	movs	r1, #7
 8001474:	4021      	ands	r1, r4
 8001476:	2428      	movs	r4, #40	; 0x28
 8001478:	3101      	adds	r1, #1
 800147a:	4361      	muls	r1, r4
 800147c:	1840      	adds	r0, r0, r1
 800147e:	b299      	uxth	r1, r3
 8001480:	2a00      	cmp	r2, #0
 8001482:	d108      	bne.n	8001496 <HAL_PCDEx_PMAConfig+0x2c>
 8001484:	7302      	strb	r2, [r0, #12]
 8001486:	80c1      	strh	r1, [r0, #6]
 8001488:	2000      	movs	r0, #0
 800148a:	bd10      	pop	{r4, pc}
 800148c:	2128      	movs	r1, #40	; 0x28
 800148e:	4361      	muls	r1, r4
 8001490:	3169      	adds	r1, #105	; 0x69
 8001492:	31ff      	adds	r1, #255	; 0xff
 8001494:	e7f2      	b.n	800147c <HAL_PCDEx_PMAConfig+0x12>
 8001496:	2201      	movs	r2, #1
 8001498:	6083      	str	r3, [r0, #8]
 800149a:	7302      	strb	r2, [r0, #12]
 800149c:	e7f4      	b.n	8001488 <HAL_PCDEx_PMAConfig+0x1e>

0800149e <HAL_PCDEx_ActivateLPM>:
 800149e:	6803      	ldr	r3, [r0, #0]
 80014a0:	0002      	movs	r2, r0
 80014a2:	20ba      	movs	r0, #186	; 0xba
 80014a4:	2101      	movs	r1, #1
 80014a6:	b510      	push	{r4, lr}
 80014a8:	0080      	lsls	r0, r0, #2
 80014aa:	24b8      	movs	r4, #184	; 0xb8
 80014ac:	5011      	str	r1, [r2, r0]
 80014ae:	2000      	movs	r0, #0
 80014b0:	00a4      	lsls	r4, r4, #2
 80014b2:	5510      	strb	r0, [r2, r4]
 80014b4:	3354      	adds	r3, #84	; 0x54
 80014b6:	881a      	ldrh	r2, [r3, #0]
 80014b8:	4311      	orrs	r1, r2
 80014ba:	2202      	movs	r2, #2
 80014bc:	8019      	strh	r1, [r3, #0]
 80014be:	8819      	ldrh	r1, [r3, #0]
 80014c0:	430a      	orrs	r2, r1
 80014c2:	801a      	strh	r2, [r3, #0]
 80014c4:	bd10      	pop	{r4, pc}

080014c6 <HAL_PCDEx_LPM_Callback>:
 80014c6:	4770      	bx	lr

080014c8 <HAL_RCC_GetSysClockFreq>:
 80014c8:	220c      	movs	r2, #12
 80014ca:	4b1d      	ldr	r3, [pc, #116]	; (8001540 <HAL_RCC_GetSysClockFreq+0x78>)
 80014cc:	b570      	push	{r4, r5, r6, lr}
 80014ce:	68dc      	ldr	r4, [r3, #12]
 80014d0:	4022      	ands	r2, r4
 80014d2:	2a08      	cmp	r2, #8
 80014d4:	d031      	beq.n	800153a <HAL_RCC_GetSysClockFreq+0x72>
 80014d6:	2a0c      	cmp	r2, #12
 80014d8:	d009      	beq.n	80014ee <HAL_RCC_GetSysClockFreq+0x26>
 80014da:	2a04      	cmp	r2, #4
 80014dc:	d125      	bne.n	800152a <HAL_RCC_GetSysClockFreq+0x62>
 80014de:	6818      	ldr	r0, [r3, #0]
 80014e0:	4b18      	ldr	r3, [pc, #96]	; (8001544 <HAL_RCC_GetSysClockFreq+0x7c>)
 80014e2:	06c0      	lsls	r0, r0, #27
 80014e4:	17c0      	asrs	r0, r0, #31
 80014e6:	4018      	ands	r0, r3
 80014e8:	4b17      	ldr	r3, [pc, #92]	; (8001548 <HAL_RCC_GetSysClockFreq+0x80>)
 80014ea:	18c0      	adds	r0, r0, r3
 80014ec:	bd70      	pop	{r4, r5, r6, pc}
 80014ee:	02a2      	lsls	r2, r4, #10
 80014f0:	4816      	ldr	r0, [pc, #88]	; (800154c <HAL_RCC_GetSysClockFreq+0x84>)
 80014f2:	0f12      	lsrs	r2, r2, #28
 80014f4:	5c80      	ldrb	r0, [r0, r2]
 80014f6:	2280      	movs	r2, #128	; 0x80
 80014f8:	0224      	lsls	r4, r4, #8
 80014fa:	68d9      	ldr	r1, [r3, #12]
 80014fc:	0fa4      	lsrs	r4, r4, #30
 80014fe:	0252      	lsls	r2, r2, #9
 8001500:	3401      	adds	r4, #1
 8001502:	4211      	tst	r1, r2
 8001504:	d009      	beq.n	800151a <HAL_RCC_GetSysClockFreq+0x52>
 8001506:	4a12      	ldr	r2, [pc, #72]	; (8001550 <HAL_RCC_GetSysClockFreq+0x88>)
 8001508:	2300      	movs	r3, #0
 800150a:	2100      	movs	r1, #0
 800150c:	f7fe febc 	bl	8000288 <__aeabi_lmul>
 8001510:	0022      	movs	r2, r4
 8001512:	2300      	movs	r3, #0
 8001514:	f7fe fe98 	bl	8000248 <__aeabi_uldivmod>
 8001518:	e7e8      	b.n	80014ec <HAL_RCC_GetSysClockFreq+0x24>
 800151a:	681a      	ldr	r2, [r3, #0]
 800151c:	2310      	movs	r3, #16
 800151e:	421a      	tst	r2, r3
 8001520:	d001      	beq.n	8001526 <HAL_RCC_GetSysClockFreq+0x5e>
 8001522:	4a0c      	ldr	r2, [pc, #48]	; (8001554 <HAL_RCC_GetSysClockFreq+0x8c>)
 8001524:	e7f0      	b.n	8001508 <HAL_RCC_GetSysClockFreq+0x40>
 8001526:	4a08      	ldr	r2, [pc, #32]	; (8001548 <HAL_RCC_GetSysClockFreq+0x80>)
 8001528:	e7ee      	b.n	8001508 <HAL_RCC_GetSysClockFreq+0x40>
 800152a:	2080      	movs	r0, #128	; 0x80
 800152c:	685b      	ldr	r3, [r3, #4]
 800152e:	0200      	lsls	r0, r0, #8
 8001530:	041b      	lsls	r3, r3, #16
 8001532:	0f5b      	lsrs	r3, r3, #29
 8001534:	3301      	adds	r3, #1
 8001536:	4098      	lsls	r0, r3
 8001538:	e7d8      	b.n	80014ec <HAL_RCC_GetSysClockFreq+0x24>
 800153a:	4805      	ldr	r0, [pc, #20]	; (8001550 <HAL_RCC_GetSysClockFreq+0x88>)
 800153c:	e7d6      	b.n	80014ec <HAL_RCC_GetSysClockFreq+0x24>
 800153e:	46c0      	nop			; (mov r8, r8)
 8001540:	40021000 	.word	0x40021000
 8001544:	ff48e500 	.word	0xff48e500
 8001548:	00f42400 	.word	0x00f42400
 800154c:	080036c6 	.word	0x080036c6
 8001550:	007a1200 	.word	0x007a1200
 8001554:	003d0900 	.word	0x003d0900

08001558 <HAL_RCC_OscConfig>:
 8001558:	b5f0      	push	{r4, r5, r6, r7, lr}
 800155a:	0005      	movs	r5, r0
 800155c:	b085      	sub	sp, #20
 800155e:	2800      	cmp	r0, #0
 8001560:	d059      	beq.n	8001616 <HAL_RCC_OscConfig+0xbe>
 8001562:	230c      	movs	r3, #12
 8001564:	4cb8      	ldr	r4, [pc, #736]	; (8001848 <HAL_RCC_OscConfig+0x2f0>)
 8001566:	6802      	ldr	r2, [r0, #0]
 8001568:	68e6      	ldr	r6, [r4, #12]
 800156a:	68e7      	ldr	r7, [r4, #12]
 800156c:	401e      	ands	r6, r3
 800156e:	2380      	movs	r3, #128	; 0x80
 8001570:	025b      	lsls	r3, r3, #9
 8001572:	0019      	movs	r1, r3
 8001574:	401f      	ands	r7, r3
 8001576:	07d2      	lsls	r2, r2, #31
 8001578:	d441      	bmi.n	80015fe <HAL_RCC_OscConfig+0xa6>
 800157a:	682b      	ldr	r3, [r5, #0]
 800157c:	079b      	lsls	r3, r3, #30
 800157e:	d500      	bpl.n	8001582 <HAL_RCC_OscConfig+0x2a>
 8001580:	e08a      	b.n	8001698 <HAL_RCC_OscConfig+0x140>
 8001582:	682b      	ldr	r3, [r5, #0]
 8001584:	06db      	lsls	r3, r3, #27
 8001586:	d528      	bpl.n	80015da <HAL_RCC_OscConfig+0x82>
 8001588:	2e00      	cmp	r6, #0
 800158a:	d000      	beq.n	800158e <HAL_RCC_OscConfig+0x36>
 800158c:	e0e3      	b.n	8001756 <HAL_RCC_OscConfig+0x1fe>
 800158e:	6823      	ldr	r3, [r4, #0]
 8001590:	059b      	lsls	r3, r3, #22
 8001592:	d502      	bpl.n	800159a <HAL_RCC_OscConfig+0x42>
 8001594:	69eb      	ldr	r3, [r5, #28]
 8001596:	2b00      	cmp	r3, #0
 8001598:	d03d      	beq.n	8001616 <HAL_RCC_OscConfig+0xbe>
 800159a:	2780      	movs	r7, #128	; 0x80
 800159c:	6862      	ldr	r2, [r4, #4]
 800159e:	49ab      	ldr	r1, [pc, #684]	; (800184c <HAL_RCC_OscConfig+0x2f4>)
 80015a0:	6a6b      	ldr	r3, [r5, #36]	; 0x24
 80015a2:	400a      	ands	r2, r1
 80015a4:	431a      	orrs	r2, r3
 80015a6:	0b5b      	lsrs	r3, r3, #13
 80015a8:	3301      	adds	r3, #1
 80015aa:	023f      	lsls	r7, r7, #8
 80015ac:	409f      	lsls	r7, r3
 80015ae:	6062      	str	r2, [r4, #4]
 80015b0:	6861      	ldr	r1, [r4, #4]
 80015b2:	6a2a      	ldr	r2, [r5, #32]
 80015b4:	0209      	lsls	r1, r1, #8
 80015b6:	0a09      	lsrs	r1, r1, #8
 80015b8:	0612      	lsls	r2, r2, #24
 80015ba:	430a      	orrs	r2, r1
 80015bc:	6062      	str	r2, [r4, #4]
 80015be:	68e1      	ldr	r1, [r4, #12]
 80015c0:	48a3      	ldr	r0, [pc, #652]	; (8001850 <HAL_RCC_OscConfig+0x2f8>)
 80015c2:	060b      	lsls	r3, r1, #24
 80015c4:	0f1b      	lsrs	r3, r3, #28
 80015c6:	5cc3      	ldrb	r3, [r0, r3]
 80015c8:	4aa2      	ldr	r2, [pc, #648]	; (8001854 <HAL_RCC_OscConfig+0x2fc>)
 80015ca:	40df      	lsrs	r7, r3
 80015cc:	4ba2      	ldr	r3, [pc, #648]	; (8001858 <HAL_RCC_OscConfig+0x300>)
 80015ce:	6017      	str	r7, [r2, #0]
 80015d0:	6818      	ldr	r0, [r3, #0]
 80015d2:	f7ff f845 	bl	8000660 <HAL_InitTick>
 80015d6:	2800      	cmp	r0, #0
 80015d8:	d134      	bne.n	8001644 <HAL_RCC_OscConfig+0xec>
 80015da:	682b      	ldr	r3, [r5, #0]
 80015dc:	071b      	lsls	r3, r3, #28
 80015de:	d500      	bpl.n	80015e2 <HAL_RCC_OscConfig+0x8a>
 80015e0:	e0f0      	b.n	80017c4 <HAL_RCC_OscConfig+0x26c>
 80015e2:	682b      	ldr	r3, [r5, #0]
 80015e4:	075b      	lsls	r3, r3, #29
 80015e6:	d500      	bpl.n	80015ea <HAL_RCC_OscConfig+0x92>
 80015e8:	e112      	b.n	8001810 <HAL_RCC_OscConfig+0x2b8>
 80015ea:	682b      	ldr	r3, [r5, #0]
 80015ec:	069b      	lsls	r3, r3, #26
 80015ee:	d500      	bpl.n	80015f2 <HAL_RCC_OscConfig+0x9a>
 80015f0:	e197      	b.n	8001922 <HAL_RCC_OscConfig+0x3ca>
 80015f2:	6aab      	ldr	r3, [r5, #40]	; 0x28
 80015f4:	2b00      	cmp	r3, #0
 80015f6:	d000      	beq.n	80015fa <HAL_RCC_OscConfig+0xa2>
 80015f8:	e1c6      	b.n	8001988 <HAL_RCC_OscConfig+0x430>
 80015fa:	2000      	movs	r0, #0
 80015fc:	e022      	b.n	8001644 <HAL_RCC_OscConfig+0xec>
 80015fe:	2e08      	cmp	r6, #8
 8001600:	d003      	beq.n	800160a <HAL_RCC_OscConfig+0xb2>
 8001602:	2e0c      	cmp	r6, #12
 8001604:	d109      	bne.n	800161a <HAL_RCC_OscConfig+0xc2>
 8001606:	2f00      	cmp	r7, #0
 8001608:	d007      	beq.n	800161a <HAL_RCC_OscConfig+0xc2>
 800160a:	6823      	ldr	r3, [r4, #0]
 800160c:	039b      	lsls	r3, r3, #14
 800160e:	d5b4      	bpl.n	800157a <HAL_RCC_OscConfig+0x22>
 8001610:	686b      	ldr	r3, [r5, #4]
 8001612:	2b00      	cmp	r3, #0
 8001614:	d1b1      	bne.n	800157a <HAL_RCC_OscConfig+0x22>
 8001616:	2001      	movs	r0, #1
 8001618:	e014      	b.n	8001644 <HAL_RCC_OscConfig+0xec>
 800161a:	686a      	ldr	r2, [r5, #4]
 800161c:	428a      	cmp	r2, r1
 800161e:	d113      	bne.n	8001648 <HAL_RCC_OscConfig+0xf0>
 8001620:	6822      	ldr	r2, [r4, #0]
 8001622:	4313      	orrs	r3, r2
 8001624:	6023      	str	r3, [r4, #0]
 8001626:	f7ff f85f 	bl	80006e8 <HAL_GetTick>
 800162a:	9000      	str	r0, [sp, #0]
 800162c:	2280      	movs	r2, #128	; 0x80
 800162e:	6823      	ldr	r3, [r4, #0]
 8001630:	0292      	lsls	r2, r2, #10
 8001632:	4213      	tst	r3, r2
 8001634:	d1a1      	bne.n	800157a <HAL_RCC_OscConfig+0x22>
 8001636:	f7ff f857 	bl	80006e8 <HAL_GetTick>
 800163a:	9b00      	ldr	r3, [sp, #0]
 800163c:	1ac0      	subs	r0, r0, r3
 800163e:	2864      	cmp	r0, #100	; 0x64
 8001640:	d9f4      	bls.n	800162c <HAL_RCC_OscConfig+0xd4>
 8001642:	2003      	movs	r0, #3
 8001644:	b005      	add	sp, #20
 8001646:	bdf0      	pop	{r4, r5, r6, r7, pc}
 8001648:	21a0      	movs	r1, #160	; 0xa0
 800164a:	02c9      	lsls	r1, r1, #11
 800164c:	428a      	cmp	r2, r1
 800164e:	d105      	bne.n	800165c <HAL_RCC_OscConfig+0x104>
 8001650:	2280      	movs	r2, #128	; 0x80
 8001652:	6821      	ldr	r1, [r4, #0]
 8001654:	02d2      	lsls	r2, r2, #11
 8001656:	430a      	orrs	r2, r1
 8001658:	6022      	str	r2, [r4, #0]
 800165a:	e7e1      	b.n	8001620 <HAL_RCC_OscConfig+0xc8>
 800165c:	6821      	ldr	r1, [r4, #0]
 800165e:	487f      	ldr	r0, [pc, #508]	; (800185c <HAL_RCC_OscConfig+0x304>)
 8001660:	4001      	ands	r1, r0
 8001662:	6021      	str	r1, [r4, #0]
 8001664:	6821      	ldr	r1, [r4, #0]
 8001666:	400b      	ands	r3, r1
 8001668:	9303      	str	r3, [sp, #12]
 800166a:	9b03      	ldr	r3, [sp, #12]
 800166c:	497c      	ldr	r1, [pc, #496]	; (8001860 <HAL_RCC_OscConfig+0x308>)
 800166e:	6823      	ldr	r3, [r4, #0]
 8001670:	400b      	ands	r3, r1
 8001672:	6023      	str	r3, [r4, #0]
 8001674:	2a00      	cmp	r2, #0
 8001676:	d1d6      	bne.n	8001626 <HAL_RCC_OscConfig+0xce>
 8001678:	f7ff f836 	bl	80006e8 <HAL_GetTick>
 800167c:	9000      	str	r0, [sp, #0]
 800167e:	2280      	movs	r2, #128	; 0x80
 8001680:	6823      	ldr	r3, [r4, #0]
 8001682:	0292      	lsls	r2, r2, #10
 8001684:	4213      	tst	r3, r2
 8001686:	d100      	bne.n	800168a <HAL_RCC_OscConfig+0x132>
 8001688:	e777      	b.n	800157a <HAL_RCC_OscConfig+0x22>
 800168a:	f7ff f82d 	bl	80006e8 <HAL_GetTick>
 800168e:	9b00      	ldr	r3, [sp, #0]
 8001690:	1ac0      	subs	r0, r0, r3
 8001692:	2864      	cmp	r0, #100	; 0x64
 8001694:	d9f3      	bls.n	800167e <HAL_RCC_OscConfig+0x126>
 8001696:	e7d4      	b.n	8001642 <HAL_RCC_OscConfig+0xea>
 8001698:	2220      	movs	r2, #32
 800169a:	68eb      	ldr	r3, [r5, #12]
 800169c:	4213      	tst	r3, r2
 800169e:	d003      	beq.n	80016a8 <HAL_RCC_OscConfig+0x150>
 80016a0:	6821      	ldr	r1, [r4, #0]
 80016a2:	4393      	bics	r3, r2
 80016a4:	4311      	orrs	r1, r2
 80016a6:	6021      	str	r1, [r4, #0]
 80016a8:	2e04      	cmp	r6, #4
 80016aa:	d003      	beq.n	80016b4 <HAL_RCC_OscConfig+0x15c>
 80016ac:	2e0c      	cmp	r6, #12
 80016ae:	d124      	bne.n	80016fa <HAL_RCC_OscConfig+0x1a2>
 80016b0:	2f00      	cmp	r7, #0
 80016b2:	d122      	bne.n	80016fa <HAL_RCC_OscConfig+0x1a2>
 80016b4:	6822      	ldr	r2, [r4, #0]
 80016b6:	0752      	lsls	r2, r2, #29
 80016b8:	d501      	bpl.n	80016be <HAL_RCC_OscConfig+0x166>
 80016ba:	2b00      	cmp	r3, #0
 80016bc:	d0ab      	beq.n	8001616 <HAL_RCC_OscConfig+0xbe>
 80016be:	6861      	ldr	r1, [r4, #4]
 80016c0:	692a      	ldr	r2, [r5, #16]
 80016c2:	4868      	ldr	r0, [pc, #416]	; (8001864 <HAL_RCC_OscConfig+0x30c>)
 80016c4:	0212      	lsls	r2, r2, #8
 80016c6:	4001      	ands	r1, r0
 80016c8:	430a      	orrs	r2, r1
 80016ca:	2109      	movs	r1, #9
 80016cc:	6062      	str	r2, [r4, #4]
 80016ce:	6822      	ldr	r2, [r4, #0]
 80016d0:	438a      	bics	r2, r1
 80016d2:	4313      	orrs	r3, r2
 80016d4:	6023      	str	r3, [r4, #0]
 80016d6:	f7ff fef7 	bl	80014c8 <HAL_RCC_GetSysClockFreq>
 80016da:	68e3      	ldr	r3, [r4, #12]
 80016dc:	4a5c      	ldr	r2, [pc, #368]	; (8001850 <HAL_RCC_OscConfig+0x2f8>)
 80016de:	061b      	lsls	r3, r3, #24
 80016e0:	0f1b      	lsrs	r3, r3, #28
 80016e2:	5cd3      	ldrb	r3, [r2, r3]
 80016e4:	495b      	ldr	r1, [pc, #364]	; (8001854 <HAL_RCC_OscConfig+0x2fc>)
 80016e6:	40d8      	lsrs	r0, r3
 80016e8:	4b5b      	ldr	r3, [pc, #364]	; (8001858 <HAL_RCC_OscConfig+0x300>)
 80016ea:	6008      	str	r0, [r1, #0]
 80016ec:	6818      	ldr	r0, [r3, #0]
 80016ee:	f7fe ffb7 	bl	8000660 <HAL_InitTick>
 80016f2:	2800      	cmp	r0, #0
 80016f4:	d100      	bne.n	80016f8 <HAL_RCC_OscConfig+0x1a0>
 80016f6:	e744      	b.n	8001582 <HAL_RCC_OscConfig+0x2a>
 80016f8:	e7a4      	b.n	8001644 <HAL_RCC_OscConfig+0xec>
 80016fa:	2b00      	cmp	r3, #0
 80016fc:	d019      	beq.n	8001732 <HAL_RCC_OscConfig+0x1da>
 80016fe:	2109      	movs	r1, #9
 8001700:	6822      	ldr	r2, [r4, #0]
 8001702:	438a      	bics	r2, r1
 8001704:	4313      	orrs	r3, r2
 8001706:	6023      	str	r3, [r4, #0]
 8001708:	f7fe ffee 	bl	80006e8 <HAL_GetTick>
 800170c:	0007      	movs	r7, r0
 800170e:	2204      	movs	r2, #4
 8001710:	6823      	ldr	r3, [r4, #0]
 8001712:	4213      	tst	r3, r2
 8001714:	d007      	beq.n	8001726 <HAL_RCC_OscConfig+0x1ce>
 8001716:	6862      	ldr	r2, [r4, #4]
 8001718:	692b      	ldr	r3, [r5, #16]
 800171a:	4952      	ldr	r1, [pc, #328]	; (8001864 <HAL_RCC_OscConfig+0x30c>)
 800171c:	021b      	lsls	r3, r3, #8
 800171e:	400a      	ands	r2, r1
 8001720:	4313      	orrs	r3, r2
 8001722:	6063      	str	r3, [r4, #4]
 8001724:	e72d      	b.n	8001582 <HAL_RCC_OscConfig+0x2a>
 8001726:	f7fe ffdf 	bl	80006e8 <HAL_GetTick>
 800172a:	1bc0      	subs	r0, r0, r7
 800172c:	2802      	cmp	r0, #2
 800172e:	d9ee      	bls.n	800170e <HAL_RCC_OscConfig+0x1b6>
 8001730:	e787      	b.n	8001642 <HAL_RCC_OscConfig+0xea>
 8001732:	2201      	movs	r2, #1
 8001734:	6823      	ldr	r3, [r4, #0]
 8001736:	4393      	bics	r3, r2
 8001738:	6023      	str	r3, [r4, #0]
 800173a:	f7fe ffd5 	bl	80006e8 <HAL_GetTick>
 800173e:	0007      	movs	r7, r0
 8001740:	2204      	movs	r2, #4
 8001742:	6823      	ldr	r3, [r4, #0]
 8001744:	4213      	tst	r3, r2
 8001746:	d100      	bne.n	800174a <HAL_RCC_OscConfig+0x1f2>
 8001748:	e71b      	b.n	8001582 <HAL_RCC_OscConfig+0x2a>
 800174a:	f7fe ffcd 	bl	80006e8 <HAL_GetTick>
 800174e:	1bc0      	subs	r0, r0, r7
 8001750:	2802      	cmp	r0, #2
 8001752:	d9f5      	bls.n	8001740 <HAL_RCC_OscConfig+0x1e8>
 8001754:	e775      	b.n	8001642 <HAL_RCC_OscConfig+0xea>
 8001756:	69eb      	ldr	r3, [r5, #28]
 8001758:	2b00      	cmp	r3, #0
 800175a:	d020      	beq.n	800179e <HAL_RCC_OscConfig+0x246>
 800175c:	2380      	movs	r3, #128	; 0x80
 800175e:	6822      	ldr	r2, [r4, #0]
 8001760:	005b      	lsls	r3, r3, #1
 8001762:	4313      	orrs	r3, r2
 8001764:	6023      	str	r3, [r4, #0]
 8001766:	f7fe ffbf 	bl	80006e8 <HAL_GetTick>
 800176a:	0007      	movs	r7, r0
 800176c:	2280      	movs	r2, #128	; 0x80
 800176e:	6823      	ldr	r3, [r4, #0]
 8001770:	0092      	lsls	r2, r2, #2
 8001772:	4213      	tst	r3, r2
 8001774:	d00d      	beq.n	8001792 <HAL_RCC_OscConfig+0x23a>
 8001776:	6863      	ldr	r3, [r4, #4]
 8001778:	4a34      	ldr	r2, [pc, #208]	; (800184c <HAL_RCC_OscConfig+0x2f4>)
 800177a:	4013      	ands	r3, r2
 800177c:	6a6a      	ldr	r2, [r5, #36]	; 0x24
 800177e:	4313      	orrs	r3, r2
 8001780:	6063      	str	r3, [r4, #4]
 8001782:	6862      	ldr	r2, [r4, #4]
 8001784:	6a2b      	ldr	r3, [r5, #32]
 8001786:	0212      	lsls	r2, r2, #8
 8001788:	061b      	lsls	r3, r3, #24
 800178a:	0a12      	lsrs	r2, r2, #8
 800178c:	4313      	orrs	r3, r2
 800178e:	6063      	str	r3, [r4, #4]
 8001790:	e723      	b.n	80015da <HAL_RCC_OscConfig+0x82>
 8001792:	f7fe ffa9 	bl	80006e8 <HAL_GetTick>
 8001796:	1bc0      	subs	r0, r0, r7
 8001798:	2802      	cmp	r0, #2
 800179a:	d9e7      	bls.n	800176c <HAL_RCC_OscConfig+0x214>
 800179c:	e751      	b.n	8001642 <HAL_RCC_OscConfig+0xea>
 800179e:	6823      	ldr	r3, [r4, #0]
 80017a0:	4a31      	ldr	r2, [pc, #196]	; (8001868 <HAL_RCC_OscConfig+0x310>)
 80017a2:	4013      	ands	r3, r2
 80017a4:	6023      	str	r3, [r4, #0]
 80017a6:	f7fe ff9f 	bl	80006e8 <HAL_GetTick>
 80017aa:	0007      	movs	r7, r0
 80017ac:	2280      	movs	r2, #128	; 0x80
 80017ae:	6823      	ldr	r3, [r4, #0]
 80017b0:	0092      	lsls	r2, r2, #2
 80017b2:	4213      	tst	r3, r2
 80017b4:	d100      	bne.n	80017b8 <HAL_RCC_OscConfig+0x260>
 80017b6:	e710      	b.n	80015da <HAL_RCC_OscConfig+0x82>
 80017b8:	f7fe ff96 	bl	80006e8 <HAL_GetTick>
 80017bc:	1bc0      	subs	r0, r0, r7
 80017be:	2802      	cmp	r0, #2
 80017c0:	d9f4      	bls.n	80017ac <HAL_RCC_OscConfig+0x254>
 80017c2:	e73e      	b.n	8001642 <HAL_RCC_OscConfig+0xea>
 80017c4:	696a      	ldr	r2, [r5, #20]
 80017c6:	2301      	movs	r3, #1
 80017c8:	2a00      	cmp	r2, #0
 80017ca:	d010      	beq.n	80017ee <HAL_RCC_OscConfig+0x296>
 80017cc:	6d22      	ldr	r2, [r4, #80]	; 0x50
 80017ce:	4313      	orrs	r3, r2
 80017d0:	6523      	str	r3, [r4, #80]	; 0x50
 80017d2:	f7fe ff89 	bl	80006e8 <HAL_GetTick>
 80017d6:	0007      	movs	r7, r0
 80017d8:	2202      	movs	r2, #2
 80017da:	6d23      	ldr	r3, [r4, #80]	; 0x50
 80017dc:	4213      	tst	r3, r2
 80017de:	d000      	beq.n	80017e2 <HAL_RCC_OscConfig+0x28a>
 80017e0:	e6ff      	b.n	80015e2 <HAL_RCC_OscConfig+0x8a>
 80017e2:	f7fe ff81 	bl	80006e8 <HAL_GetTick>
 80017e6:	1bc0      	subs	r0, r0, r7
 80017e8:	2802      	cmp	r0, #2
 80017ea:	d9f5      	bls.n	80017d8 <HAL_RCC_OscConfig+0x280>
 80017ec:	e729      	b.n	8001642 <HAL_RCC_OscConfig+0xea>
 80017ee:	6d22      	ldr	r2, [r4, #80]	; 0x50
 80017f0:	439a      	bics	r2, r3
 80017f2:	6522      	str	r2, [r4, #80]	; 0x50
 80017f4:	f7fe ff78 	bl	80006e8 <HAL_GetTick>
 80017f8:	0007      	movs	r7, r0
 80017fa:	2202      	movs	r2, #2
 80017fc:	6d23      	ldr	r3, [r4, #80]	; 0x50
 80017fe:	4213      	tst	r3, r2
 8001800:	d100      	bne.n	8001804 <HAL_RCC_OscConfig+0x2ac>
 8001802:	e6ee      	b.n	80015e2 <HAL_RCC_OscConfig+0x8a>
 8001804:	f7fe ff70 	bl	80006e8 <HAL_GetTick>
 8001808:	1bc0      	subs	r0, r0, r7
 800180a:	2802      	cmp	r0, #2
 800180c:	d9f5      	bls.n	80017fa <HAL_RCC_OscConfig+0x2a2>
 800180e:	e718      	b.n	8001642 <HAL_RCC_OscConfig+0xea>
 8001810:	2380      	movs	r3, #128	; 0x80
 8001812:	2100      	movs	r1, #0
 8001814:	6ba2      	ldr	r2, [r4, #56]	; 0x38
 8001816:	055b      	lsls	r3, r3, #21
 8001818:	9100      	str	r1, [sp, #0]
 800181a:	421a      	tst	r2, r3
 800181c:	d104      	bne.n	8001828 <HAL_RCC_OscConfig+0x2d0>
 800181e:	6ba2      	ldr	r2, [r4, #56]	; 0x38
 8001820:	4313      	orrs	r3, r2
 8001822:	63a3      	str	r3, [r4, #56]	; 0x38
 8001824:	2301      	movs	r3, #1
 8001826:	9300      	str	r3, [sp, #0]
 8001828:	2280      	movs	r2, #128	; 0x80
 800182a:	4f10      	ldr	r7, [pc, #64]	; (800186c <HAL_RCC_OscConfig+0x314>)
 800182c:	0052      	lsls	r2, r2, #1
 800182e:	683b      	ldr	r3, [r7, #0]
 8001830:	4213      	tst	r3, r2
 8001832:	d01d      	beq.n	8001870 <HAL_RCC_OscConfig+0x318>
 8001834:	2280      	movs	r2, #128	; 0x80
 8001836:	68ab      	ldr	r3, [r5, #8]
 8001838:	0052      	lsls	r2, r2, #1
 800183a:	4293      	cmp	r3, r2
 800183c:	d12c      	bne.n	8001898 <HAL_RCC_OscConfig+0x340>
 800183e:	6d22      	ldr	r2, [r4, #80]	; 0x50
 8001840:	4313      	orrs	r3, r2
 8001842:	6523      	str	r3, [r4, #80]	; 0x50
 8001844:	e04d      	b.n	80018e2 <HAL_RCC_OscConfig+0x38a>
 8001846:	46c0      	nop			; (mov r8, r8)
 8001848:	40021000 	.word	0x40021000
 800184c:	ffff1fff 	.word	0xffff1fff
 8001850:	080036b6 	.word	0x080036b6
 8001854:	20000000 	.word	0x20000000
 8001858:	20000008 	.word	0x20000008
 800185c:	fffeffff 	.word	0xfffeffff
 8001860:	fffbffff 	.word	0xfffbffff
 8001864:	ffffe0ff 	.word	0xffffe0ff
 8001868:	fffffeff 	.word	0xfffffeff
 800186c:	40007000 	.word	0x40007000
 8001870:	2280      	movs	r2, #128	; 0x80
 8001872:	683b      	ldr	r3, [r7, #0]
 8001874:	0052      	lsls	r2, r2, #1
 8001876:	4313      	orrs	r3, r2
 8001878:	603b      	str	r3, [r7, #0]
 800187a:	f7fe ff35 	bl	80006e8 <HAL_GetTick>
 800187e:	9001      	str	r0, [sp, #4]
 8001880:	2280      	movs	r2, #128	; 0x80
 8001882:	683b      	ldr	r3, [r7, #0]
 8001884:	0052      	lsls	r2, r2, #1
 8001886:	4213      	tst	r3, r2
 8001888:	d1d4      	bne.n	8001834 <HAL_RCC_OscConfig+0x2dc>
 800188a:	f7fe ff2d 	bl	80006e8 <HAL_GetTick>
 800188e:	9b01      	ldr	r3, [sp, #4]
 8001890:	1ac0      	subs	r0, r0, r3
 8001892:	2864      	cmp	r0, #100	; 0x64
 8001894:	d9f4      	bls.n	8001880 <HAL_RCC_OscConfig+0x328>
 8001896:	e6d4      	b.n	8001642 <HAL_RCC_OscConfig+0xea>
 8001898:	2b00      	cmp	r3, #0
 800189a:	d116      	bne.n	80018ca <HAL_RCC_OscConfig+0x372>
 800189c:	6d23      	ldr	r3, [r4, #80]	; 0x50
 800189e:	4a6b      	ldr	r2, [pc, #428]	; (8001a4c <HAL_RCC_OscConfig+0x4f4>)
 80018a0:	4013      	ands	r3, r2
 80018a2:	6523      	str	r3, [r4, #80]	; 0x50
 80018a4:	6d23      	ldr	r3, [r4, #80]	; 0x50
 80018a6:	4a6a      	ldr	r2, [pc, #424]	; (8001a50 <HAL_RCC_OscConfig+0x4f8>)
 80018a8:	4013      	ands	r3, r2
 80018aa:	6523      	str	r3, [r4, #80]	; 0x50
 80018ac:	f7fe ff1c 	bl	80006e8 <HAL_GetTick>
 80018b0:	0007      	movs	r7, r0
 80018b2:	2280      	movs	r2, #128	; 0x80
 80018b4:	6d23      	ldr	r3, [r4, #80]	; 0x50
 80018b6:	0092      	lsls	r2, r2, #2
 80018b8:	4213      	tst	r3, r2
 80018ba:	d01a      	beq.n	80018f2 <HAL_RCC_OscConfig+0x39a>
 80018bc:	f7fe ff14 	bl	80006e8 <HAL_GetTick>
 80018c0:	4b64      	ldr	r3, [pc, #400]	; (8001a54 <HAL_RCC_OscConfig+0x4fc>)
 80018c2:	1bc0      	subs	r0, r0, r7
 80018c4:	4298      	cmp	r0, r3
 80018c6:	d9f4      	bls.n	80018b2 <HAL_RCC_OscConfig+0x35a>
 80018c8:	e6bb      	b.n	8001642 <HAL_RCC_OscConfig+0xea>
 80018ca:	21a0      	movs	r1, #160	; 0xa0
 80018cc:	00c9      	lsls	r1, r1, #3
 80018ce:	428b      	cmp	r3, r1
 80018d0:	d118      	bne.n	8001904 <HAL_RCC_OscConfig+0x3ac>
 80018d2:	2380      	movs	r3, #128	; 0x80
 80018d4:	6d21      	ldr	r1, [r4, #80]	; 0x50
 80018d6:	00db      	lsls	r3, r3, #3
 80018d8:	430b      	orrs	r3, r1
 80018da:	6523      	str	r3, [r4, #80]	; 0x50
 80018dc:	6d23      	ldr	r3, [r4, #80]	; 0x50
 80018de:	431a      	orrs	r2, r3
 80018e0:	6522      	str	r2, [r4, #80]	; 0x50
 80018e2:	f7fe ff01 	bl	80006e8 <HAL_GetTick>
 80018e6:	0007      	movs	r7, r0
 80018e8:	2280      	movs	r2, #128	; 0x80
 80018ea:	6d23      	ldr	r3, [r4, #80]	; 0x50
 80018ec:	0092      	lsls	r2, r2, #2
 80018ee:	4213      	tst	r3, r2
 80018f0:	d010      	beq.n	8001914 <HAL_RCC_OscConfig+0x3bc>
 80018f2:	9b00      	ldr	r3, [sp, #0]
 80018f4:	2b01      	cmp	r3, #1
 80018f6:	d000      	beq.n	80018fa <HAL_RCC_OscConfig+0x3a2>
 80018f8:	e677      	b.n	80015ea <HAL_RCC_OscConfig+0x92>
 80018fa:	6ba3      	ldr	r3, [r4, #56]	; 0x38
 80018fc:	4a56      	ldr	r2, [pc, #344]	; (8001a58 <HAL_RCC_OscConfig+0x500>)
 80018fe:	4013      	ands	r3, r2
 8001900:	63a3      	str	r3, [r4, #56]	; 0x38
 8001902:	e672      	b.n	80015ea <HAL_RCC_OscConfig+0x92>
 8001904:	6d23      	ldr	r3, [r4, #80]	; 0x50
 8001906:	4a51      	ldr	r2, [pc, #324]	; (8001a4c <HAL_RCC_OscConfig+0x4f4>)
 8001908:	4013      	ands	r3, r2
 800190a:	6523      	str	r3, [r4, #80]	; 0x50
 800190c:	6d23      	ldr	r3, [r4, #80]	; 0x50
 800190e:	4a50      	ldr	r2, [pc, #320]	; (8001a50 <HAL_RCC_OscConfig+0x4f8>)
 8001910:	4013      	ands	r3, r2
 8001912:	e796      	b.n	8001842 <HAL_RCC_OscConfig+0x2ea>
 8001914:	f7fe fee8 	bl	80006e8 <HAL_GetTick>
 8001918:	4b4e      	ldr	r3, [pc, #312]	; (8001a54 <HAL_RCC_OscConfig+0x4fc>)
 800191a:	1bc0      	subs	r0, r0, r7
 800191c:	4298      	cmp	r0, r3
 800191e:	d9e3      	bls.n	80018e8 <HAL_RCC_OscConfig+0x390>
 8001920:	e68f      	b.n	8001642 <HAL_RCC_OscConfig+0xea>
 8001922:	69aa      	ldr	r2, [r5, #24]
 8001924:	2101      	movs	r1, #1
 8001926:	4b4d      	ldr	r3, [pc, #308]	; (8001a5c <HAL_RCC_OscConfig+0x504>)
 8001928:	2a00      	cmp	r2, #0
 800192a:	d018      	beq.n	800195e <HAL_RCC_OscConfig+0x406>
 800192c:	68a2      	ldr	r2, [r4, #8]
 800192e:	430a      	orrs	r2, r1
 8001930:	60a2      	str	r2, [r4, #8]
 8001932:	6b62      	ldr	r2, [r4, #52]	; 0x34
 8001934:	430a      	orrs	r2, r1
 8001936:	6362      	str	r2, [r4, #52]	; 0x34
 8001938:	2280      	movs	r2, #128	; 0x80
 800193a:	6a19      	ldr	r1, [r3, #32]
 800193c:	0192      	lsls	r2, r2, #6
 800193e:	430a      	orrs	r2, r1
 8001940:	621a      	str	r2, [r3, #32]
 8001942:	f7fe fed1 	bl	80006e8 <HAL_GetTick>
 8001946:	0007      	movs	r7, r0
 8001948:	2202      	movs	r2, #2
 800194a:	68a3      	ldr	r3, [r4, #8]
 800194c:	4213      	tst	r3, r2
 800194e:	d000      	beq.n	8001952 <HAL_RCC_OscConfig+0x3fa>
 8001950:	e64f      	b.n	80015f2 <HAL_RCC_OscConfig+0x9a>
 8001952:	f7fe fec9 	bl	80006e8 <HAL_GetTick>
 8001956:	1bc0      	subs	r0, r0, r7
 8001958:	2802      	cmp	r0, #2
 800195a:	d9f5      	bls.n	8001948 <HAL_RCC_OscConfig+0x3f0>
 800195c:	e671      	b.n	8001642 <HAL_RCC_OscConfig+0xea>
 800195e:	68a2      	ldr	r2, [r4, #8]
 8001960:	438a      	bics	r2, r1
 8001962:	60a2      	str	r2, [r4, #8]
 8001964:	6a1a      	ldr	r2, [r3, #32]
 8001966:	493e      	ldr	r1, [pc, #248]	; (8001a60 <HAL_RCC_OscConfig+0x508>)
 8001968:	400a      	ands	r2, r1
 800196a:	621a      	str	r2, [r3, #32]
 800196c:	f7fe febc 	bl	80006e8 <HAL_GetTick>
 8001970:	0007      	movs	r7, r0
 8001972:	2202      	movs	r2, #2
 8001974:	68a3      	ldr	r3, [r4, #8]
 8001976:	4213      	tst	r3, r2
 8001978:	d100      	bne.n	800197c <HAL_RCC_OscConfig+0x424>
 800197a:	e63a      	b.n	80015f2 <HAL_RCC_OscConfig+0x9a>
 800197c:	f7fe feb4 	bl	80006e8 <HAL_GetTick>
 8001980:	1bc0      	subs	r0, r0, r7
 8001982:	2802      	cmp	r0, #2
 8001984:	d9f5      	bls.n	8001972 <HAL_RCC_OscConfig+0x41a>
 8001986:	e65c      	b.n	8001642 <HAL_RCC_OscConfig+0xea>
 8001988:	2e0c      	cmp	r6, #12
 800198a:	d043      	beq.n	8001a14 <HAL_RCC_OscConfig+0x4bc>
 800198c:	4a35      	ldr	r2, [pc, #212]	; (8001a64 <HAL_RCC_OscConfig+0x50c>)
 800198e:	2b02      	cmp	r3, #2
 8001990:	d12e      	bne.n	80019f0 <HAL_RCC_OscConfig+0x498>
 8001992:	6823      	ldr	r3, [r4, #0]
 8001994:	2780      	movs	r7, #128	; 0x80
 8001996:	4013      	ands	r3, r2
 8001998:	6023      	str	r3, [r4, #0]
 800199a:	f7fe fea5 	bl	80006e8 <HAL_GetTick>
 800199e:	0006      	movs	r6, r0
 80019a0:	04bf      	lsls	r7, r7, #18
 80019a2:	6823      	ldr	r3, [r4, #0]
 80019a4:	423b      	tst	r3, r7
 80019a6:	d11d      	bne.n	80019e4 <HAL_RCC_OscConfig+0x48c>
 80019a8:	6b29      	ldr	r1, [r5, #48]	; 0x30
 80019aa:	6aeb      	ldr	r3, [r5, #44]	; 0x2c
 80019ac:	68e2      	ldr	r2, [r4, #12]
 80019ae:	430b      	orrs	r3, r1
 80019b0:	492d      	ldr	r1, [pc, #180]	; (8001a68 <HAL_RCC_OscConfig+0x510>)
 80019b2:	2680      	movs	r6, #128	; 0x80
 80019b4:	400a      	ands	r2, r1
 80019b6:	4313      	orrs	r3, r2
 80019b8:	6b6a      	ldr	r2, [r5, #52]	; 0x34
 80019ba:	04b6      	lsls	r6, r6, #18
 80019bc:	4313      	orrs	r3, r2
 80019be:	60e3      	str	r3, [r4, #12]
 80019c0:	2380      	movs	r3, #128	; 0x80
 80019c2:	6822      	ldr	r2, [r4, #0]
 80019c4:	045b      	lsls	r3, r3, #17
 80019c6:	4313      	orrs	r3, r2
 80019c8:	6023      	str	r3, [r4, #0]
 80019ca:	f7fe fe8d 	bl	80006e8 <HAL_GetTick>
 80019ce:	0005      	movs	r5, r0
 80019d0:	6823      	ldr	r3, [r4, #0]
 80019d2:	4233      	tst	r3, r6
 80019d4:	d000      	beq.n	80019d8 <HAL_RCC_OscConfig+0x480>
 80019d6:	e610      	b.n	80015fa <HAL_RCC_OscConfig+0xa2>
 80019d8:	f7fe fe86 	bl	80006e8 <HAL_GetTick>
 80019dc:	1b40      	subs	r0, r0, r5
 80019de:	2802      	cmp	r0, #2
 80019e0:	d9f6      	bls.n	80019d0 <HAL_RCC_OscConfig+0x478>
 80019e2:	e62e      	b.n	8001642 <HAL_RCC_OscConfig+0xea>
 80019e4:	f7fe fe80 	bl	80006e8 <HAL_GetTick>
 80019e8:	1b80      	subs	r0, r0, r6
 80019ea:	2802      	cmp	r0, #2
 80019ec:	d9d9      	bls.n	80019a2 <HAL_RCC_OscConfig+0x44a>
 80019ee:	e628      	b.n	8001642 <HAL_RCC_OscConfig+0xea>
 80019f0:	6823      	ldr	r3, [r4, #0]
 80019f2:	2680      	movs	r6, #128	; 0x80
 80019f4:	4013      	ands	r3, r2
 80019f6:	6023      	str	r3, [r4, #0]
 80019f8:	f7fe fe76 	bl	80006e8 <HAL_GetTick>
 80019fc:	0005      	movs	r5, r0
 80019fe:	04b6      	lsls	r6, r6, #18
 8001a00:	6823      	ldr	r3, [r4, #0]
 8001a02:	4233      	tst	r3, r6
 8001a04:	d100      	bne.n	8001a08 <HAL_RCC_OscConfig+0x4b0>
 8001a06:	e5f8      	b.n	80015fa <HAL_RCC_OscConfig+0xa2>
 8001a08:	f7fe fe6e 	bl	80006e8 <HAL_GetTick>
 8001a0c:	1b40      	subs	r0, r0, r5
 8001a0e:	2802      	cmp	r0, #2
 8001a10:	d9f6      	bls.n	8001a00 <HAL_RCC_OscConfig+0x4a8>
 8001a12:	e616      	b.n	8001642 <HAL_RCC_OscConfig+0xea>
 8001a14:	0018      	movs	r0, r3
 8001a16:	2b01      	cmp	r3, #1
 8001a18:	d100      	bne.n	8001a1c <HAL_RCC_OscConfig+0x4c4>
 8001a1a:	e613      	b.n	8001644 <HAL_RCC_OscConfig+0xec>
 8001a1c:	2280      	movs	r2, #128	; 0x80
 8001a1e:	68e3      	ldr	r3, [r4, #12]
 8001a20:	6ae9      	ldr	r1, [r5, #44]	; 0x2c
 8001a22:	0252      	lsls	r2, r2, #9
 8001a24:	401a      	ands	r2, r3
 8001a26:	428a      	cmp	r2, r1
 8001a28:	d000      	beq.n	8001a2c <HAL_RCC_OscConfig+0x4d4>
 8001a2a:	e5f4      	b.n	8001616 <HAL_RCC_OscConfig+0xbe>
 8001a2c:	22f0      	movs	r2, #240	; 0xf0
 8001a2e:	6b29      	ldr	r1, [r5, #48]	; 0x30
 8001a30:	0392      	lsls	r2, r2, #14
 8001a32:	401a      	ands	r2, r3
 8001a34:	428a      	cmp	r2, r1
 8001a36:	d000      	beq.n	8001a3a <HAL_RCC_OscConfig+0x4e2>
 8001a38:	e5ed      	b.n	8001616 <HAL_RCC_OscConfig+0xbe>
 8001a3a:	22c0      	movs	r2, #192	; 0xc0
 8001a3c:	0412      	lsls	r2, r2, #16
 8001a3e:	4013      	ands	r3, r2
 8001a40:	6b6a      	ldr	r2, [r5, #52]	; 0x34
 8001a42:	4293      	cmp	r3, r2
 8001a44:	d100      	bne.n	8001a48 <HAL_RCC_OscConfig+0x4f0>
 8001a46:	e5d8      	b.n	80015fa <HAL_RCC_OscConfig+0xa2>
 8001a48:	e5e5      	b.n	8001616 <HAL_RCC_OscConfig+0xbe>
 8001a4a:	46c0      	nop			; (mov r8, r8)
 8001a4c:	fffffeff 	.word	0xfffffeff
 8001a50:	fffffbff 	.word	0xfffffbff
 8001a54:	00001388 	.word	0x00001388
 8001a58:	efffffff 	.word	0xefffffff
 8001a5c:	40010000 	.word	0x40010000
 8001a60:	ffffdfff 	.word	0xffffdfff
 8001a64:	feffffff 	.word	0xfeffffff
 8001a68:	ff02ffff 	.word	0xff02ffff

08001a6c <HAL_RCC_ClockConfig>:
 8001a6c:	b5f7      	push	{r0, r1, r2, r4, r5, r6, r7, lr}
 8001a6e:	1e04      	subs	r4, r0, #0
 8001a70:	9101      	str	r1, [sp, #4]
 8001a72:	d101      	bne.n	8001a78 <HAL_RCC_ClockConfig+0xc>
 8001a74:	2001      	movs	r0, #1
 8001a76:	bdfe      	pop	{r1, r2, r3, r4, r5, r6, r7, pc}
 8001a78:	2501      	movs	r5, #1
 8001a7a:	4e5b      	ldr	r6, [pc, #364]	; (8001be8 <HAL_RCC_ClockConfig+0x17c>)
 8001a7c:	9a01      	ldr	r2, [sp, #4]
 8001a7e:	6833      	ldr	r3, [r6, #0]
 8001a80:	402b      	ands	r3, r5
 8001a82:	4293      	cmp	r3, r2
 8001a84:	d331      	bcc.n	8001aea <HAL_RCC_ClockConfig+0x7e>
 8001a86:	6822      	ldr	r2, [r4, #0]
 8001a88:	0793      	lsls	r3, r2, #30
 8001a8a:	d443      	bmi.n	8001b14 <HAL_RCC_ClockConfig+0xa8>
 8001a8c:	07d2      	lsls	r2, r2, #31
 8001a8e:	d449      	bmi.n	8001b24 <HAL_RCC_ClockConfig+0xb8>
 8001a90:	2501      	movs	r5, #1
 8001a92:	6833      	ldr	r3, [r6, #0]
 8001a94:	9a01      	ldr	r2, [sp, #4]
 8001a96:	402b      	ands	r3, r5
 8001a98:	4293      	cmp	r3, r2
 8001a9a:	d909      	bls.n	8001ab0 <HAL_RCC_ClockConfig+0x44>
 8001a9c:	6833      	ldr	r3, [r6, #0]
 8001a9e:	43ab      	bics	r3, r5
 8001aa0:	6033      	str	r3, [r6, #0]
 8001aa2:	f7fe fe21 	bl	80006e8 <HAL_GetTick>
 8001aa6:	0007      	movs	r7, r0
 8001aa8:	6833      	ldr	r3, [r6, #0]
 8001aaa:	422b      	tst	r3, r5
 8001aac:	d000      	beq.n	8001ab0 <HAL_RCC_ClockConfig+0x44>
 8001aae:	e08c      	b.n	8001bca <HAL_RCC_ClockConfig+0x15e>
 8001ab0:	6822      	ldr	r2, [r4, #0]
 8001ab2:	4d4e      	ldr	r5, [pc, #312]	; (8001bec <HAL_RCC_ClockConfig+0x180>)
 8001ab4:	0753      	lsls	r3, r2, #29
 8001ab6:	d500      	bpl.n	8001aba <HAL_RCC_ClockConfig+0x4e>
 8001ab8:	e08f      	b.n	8001bda <HAL_RCC_ClockConfig+0x16e>
 8001aba:	0712      	lsls	r2, r2, #28
 8001abc:	d506      	bpl.n	8001acc <HAL_RCC_ClockConfig+0x60>
 8001abe:	68ea      	ldr	r2, [r5, #12]
 8001ac0:	6923      	ldr	r3, [r4, #16]
 8001ac2:	494b      	ldr	r1, [pc, #300]	; (8001bf0 <HAL_RCC_ClockConfig+0x184>)
 8001ac4:	00db      	lsls	r3, r3, #3
 8001ac6:	400a      	ands	r2, r1
 8001ac8:	4313      	orrs	r3, r2
 8001aca:	60eb      	str	r3, [r5, #12]
 8001acc:	f7ff fcfc 	bl	80014c8 <HAL_RCC_GetSysClockFreq>
 8001ad0:	68eb      	ldr	r3, [r5, #12]
 8001ad2:	4a48      	ldr	r2, [pc, #288]	; (8001bf4 <HAL_RCC_ClockConfig+0x188>)
 8001ad4:	061b      	lsls	r3, r3, #24
 8001ad6:	0f1b      	lsrs	r3, r3, #28
 8001ad8:	5cd3      	ldrb	r3, [r2, r3]
 8001ada:	4947      	ldr	r1, [pc, #284]	; (8001bf8 <HAL_RCC_ClockConfig+0x18c>)
 8001adc:	40d8      	lsrs	r0, r3
 8001ade:	4b47      	ldr	r3, [pc, #284]	; (8001bfc <HAL_RCC_ClockConfig+0x190>)
 8001ae0:	6008      	str	r0, [r1, #0]
 8001ae2:	6818      	ldr	r0, [r3, #0]
 8001ae4:	f7fe fdbc 	bl	8000660 <HAL_InitTick>
 8001ae8:	e7c5      	b.n	8001a76 <HAL_RCC_ClockConfig+0xa>
 8001aea:	6833      	ldr	r3, [r6, #0]
 8001aec:	9a01      	ldr	r2, [sp, #4]
 8001aee:	43ab      	bics	r3, r5
 8001af0:	4313      	orrs	r3, r2
 8001af2:	6033      	str	r3, [r6, #0]
 8001af4:	f7fe fdf8 	bl	80006e8 <HAL_GetTick>
 8001af8:	0007      	movs	r7, r0
 8001afa:	6833      	ldr	r3, [r6, #0]
 8001afc:	9a01      	ldr	r2, [sp, #4]
 8001afe:	402b      	ands	r3, r5
 8001b00:	4293      	cmp	r3, r2
 8001b02:	d0c0      	beq.n	8001a86 <HAL_RCC_ClockConfig+0x1a>
 8001b04:	f7fe fdf0 	bl	80006e8 <HAL_GetTick>
 8001b08:	4b3d      	ldr	r3, [pc, #244]	; (8001c00 <HAL_RCC_ClockConfig+0x194>)
 8001b0a:	1bc0      	subs	r0, r0, r7
 8001b0c:	4298      	cmp	r0, r3
 8001b0e:	d9f4      	bls.n	8001afa <HAL_RCC_ClockConfig+0x8e>
 8001b10:	2003      	movs	r0, #3
 8001b12:	e7b0      	b.n	8001a76 <HAL_RCC_ClockConfig+0xa>
 8001b14:	20f0      	movs	r0, #240	; 0xf0
 8001b16:	4935      	ldr	r1, [pc, #212]	; (8001bec <HAL_RCC_ClockConfig+0x180>)
 8001b18:	68cb      	ldr	r3, [r1, #12]
 8001b1a:	4383      	bics	r3, r0
 8001b1c:	68a0      	ldr	r0, [r4, #8]
 8001b1e:	4303      	orrs	r3, r0
 8001b20:	60cb      	str	r3, [r1, #12]
 8001b22:	e7b3      	b.n	8001a8c <HAL_RCC_ClockConfig+0x20>
 8001b24:	4d31      	ldr	r5, [pc, #196]	; (8001bec <HAL_RCC_ClockConfig+0x180>)
 8001b26:	6862      	ldr	r2, [r4, #4]
 8001b28:	682b      	ldr	r3, [r5, #0]
 8001b2a:	2a02      	cmp	r2, #2
 8001b2c:	d118      	bne.n	8001b60 <HAL_RCC_ClockConfig+0xf4>
 8001b2e:	039b      	lsls	r3, r3, #14
 8001b30:	d5a0      	bpl.n	8001a74 <HAL_RCC_ClockConfig+0x8>
 8001b32:	2103      	movs	r1, #3
 8001b34:	68eb      	ldr	r3, [r5, #12]
 8001b36:	438b      	bics	r3, r1
 8001b38:	4313      	orrs	r3, r2
 8001b3a:	60eb      	str	r3, [r5, #12]
 8001b3c:	f7fe fdd4 	bl	80006e8 <HAL_GetTick>
 8001b40:	6863      	ldr	r3, [r4, #4]
 8001b42:	0007      	movs	r7, r0
 8001b44:	2b02      	cmp	r3, #2
 8001b46:	d118      	bne.n	8001b7a <HAL_RCC_ClockConfig+0x10e>
 8001b48:	220c      	movs	r2, #12
 8001b4a:	68eb      	ldr	r3, [r5, #12]
 8001b4c:	4013      	ands	r3, r2
 8001b4e:	2b08      	cmp	r3, #8
 8001b50:	d09e      	beq.n	8001a90 <HAL_RCC_ClockConfig+0x24>
 8001b52:	f7fe fdc9 	bl	80006e8 <HAL_GetTick>
 8001b56:	4b2a      	ldr	r3, [pc, #168]	; (8001c00 <HAL_RCC_ClockConfig+0x194>)
 8001b58:	1bc0      	subs	r0, r0, r7
 8001b5a:	4298      	cmp	r0, r3
 8001b5c:	d9f4      	bls.n	8001b48 <HAL_RCC_ClockConfig+0xdc>
 8001b5e:	e7d7      	b.n	8001b10 <HAL_RCC_ClockConfig+0xa4>
 8001b60:	2a03      	cmp	r2, #3
 8001b62:	d102      	bne.n	8001b6a <HAL_RCC_ClockConfig+0xfe>
 8001b64:	019b      	lsls	r3, r3, #6
 8001b66:	d4e4      	bmi.n	8001b32 <HAL_RCC_ClockConfig+0xc6>
 8001b68:	e784      	b.n	8001a74 <HAL_RCC_ClockConfig+0x8>
 8001b6a:	2a01      	cmp	r2, #1
 8001b6c:	d102      	bne.n	8001b74 <HAL_RCC_ClockConfig+0x108>
 8001b6e:	075b      	lsls	r3, r3, #29
 8001b70:	d4df      	bmi.n	8001b32 <HAL_RCC_ClockConfig+0xc6>
 8001b72:	e77f      	b.n	8001a74 <HAL_RCC_ClockConfig+0x8>
 8001b74:	059b      	lsls	r3, r3, #22
 8001b76:	d4dc      	bmi.n	8001b32 <HAL_RCC_ClockConfig+0xc6>
 8001b78:	e77c      	b.n	8001a74 <HAL_RCC_ClockConfig+0x8>
 8001b7a:	2b03      	cmp	r3, #3
 8001b7c:	d10b      	bne.n	8001b96 <HAL_RCC_ClockConfig+0x12a>
 8001b7e:	220c      	movs	r2, #12
 8001b80:	68eb      	ldr	r3, [r5, #12]
 8001b82:	4013      	ands	r3, r2
 8001b84:	4293      	cmp	r3, r2
 8001b86:	d083      	beq.n	8001a90 <HAL_RCC_ClockConfig+0x24>
 8001b88:	f7fe fdae 	bl	80006e8 <HAL_GetTick>
 8001b8c:	4b1c      	ldr	r3, [pc, #112]	; (8001c00 <HAL_RCC_ClockConfig+0x194>)
 8001b8e:	1bc0      	subs	r0, r0, r7
 8001b90:	4298      	cmp	r0, r3
 8001b92:	d9f4      	bls.n	8001b7e <HAL_RCC_ClockConfig+0x112>
 8001b94:	e7bc      	b.n	8001b10 <HAL_RCC_ClockConfig+0xa4>
 8001b96:	2b01      	cmp	r3, #1
 8001b98:	d011      	beq.n	8001bbe <HAL_RCC_ClockConfig+0x152>
 8001b9a:	220c      	movs	r2, #12
 8001b9c:	68eb      	ldr	r3, [r5, #12]
 8001b9e:	4213      	tst	r3, r2
 8001ba0:	d100      	bne.n	8001ba4 <HAL_RCC_ClockConfig+0x138>
 8001ba2:	e775      	b.n	8001a90 <HAL_RCC_ClockConfig+0x24>
 8001ba4:	f7fe fda0 	bl	80006e8 <HAL_GetTick>
 8001ba8:	4b15      	ldr	r3, [pc, #84]	; (8001c00 <HAL_RCC_ClockConfig+0x194>)
 8001baa:	1bc0      	subs	r0, r0, r7
 8001bac:	4298      	cmp	r0, r3
 8001bae:	d9f4      	bls.n	8001b9a <HAL_RCC_ClockConfig+0x12e>
 8001bb0:	e7ae      	b.n	8001b10 <HAL_RCC_ClockConfig+0xa4>
 8001bb2:	f7fe fd99 	bl	80006e8 <HAL_GetTick>
 8001bb6:	4b12      	ldr	r3, [pc, #72]	; (8001c00 <HAL_RCC_ClockConfig+0x194>)
 8001bb8:	1bc0      	subs	r0, r0, r7
 8001bba:	4298      	cmp	r0, r3
 8001bbc:	d8a8      	bhi.n	8001b10 <HAL_RCC_ClockConfig+0xa4>
 8001bbe:	220c      	movs	r2, #12
 8001bc0:	68eb      	ldr	r3, [r5, #12]
 8001bc2:	4013      	ands	r3, r2
 8001bc4:	2b04      	cmp	r3, #4
 8001bc6:	d1f4      	bne.n	8001bb2 <HAL_RCC_ClockConfig+0x146>
 8001bc8:	e762      	b.n	8001a90 <HAL_RCC_ClockConfig+0x24>
 8001bca:	f7fe fd8d 	bl	80006e8 <HAL_GetTick>
 8001bce:	4b0c      	ldr	r3, [pc, #48]	; (8001c00 <HAL_RCC_ClockConfig+0x194>)
 8001bd0:	1bc0      	subs	r0, r0, r7
 8001bd2:	4298      	cmp	r0, r3
 8001bd4:	d800      	bhi.n	8001bd8 <HAL_RCC_ClockConfig+0x16c>
 8001bd6:	e767      	b.n	8001aa8 <HAL_RCC_ClockConfig+0x3c>
 8001bd8:	e79a      	b.n	8001b10 <HAL_RCC_ClockConfig+0xa4>
 8001bda:	68eb      	ldr	r3, [r5, #12]
 8001bdc:	4909      	ldr	r1, [pc, #36]	; (8001c04 <HAL_RCC_ClockConfig+0x198>)
 8001bde:	400b      	ands	r3, r1
 8001be0:	68e1      	ldr	r1, [r4, #12]
 8001be2:	430b      	orrs	r3, r1
 8001be4:	60eb      	str	r3, [r5, #12]
 8001be6:	e768      	b.n	8001aba <HAL_RCC_ClockConfig+0x4e>
 8001be8:	40022000 	.word	0x40022000
 8001bec:	40021000 	.word	0x40021000
 8001bf0:	ffffc7ff 	.word	0xffffc7ff
 8001bf4:	080036b6 	.word	0x080036b6
 8001bf8:	20000000 	.word	0x20000000
 8001bfc:	20000008 	.word	0x20000008
 8001c00:	00001388 	.word	0x00001388
 8001c04:	fffff8ff 	.word	0xfffff8ff

08001c08 <HAL_RCCEx_PeriphCLKConfig>:
 8001c08:	6803      	ldr	r3, [r0, #0]
 8001c0a:	b5f7      	push	{r0, r1, r2, r4, r5, r6, r7, lr}
 8001c0c:	0005      	movs	r5, r0
 8001c0e:	069b      	lsls	r3, r3, #26
 8001c10:	d52c      	bpl.n	8001c6c <HAL_RCCEx_PeriphCLKConfig+0x64>
 8001c12:	2380      	movs	r3, #128	; 0x80
 8001c14:	2100      	movs	r1, #0
 8001c16:	4c60      	ldr	r4, [pc, #384]	; (8001d98 <HAL_RCCEx_PeriphCLKConfig+0x190>)
 8001c18:	055b      	lsls	r3, r3, #21
 8001c1a:	6ba2      	ldr	r2, [r4, #56]	; 0x38
 8001c1c:	9100      	str	r1, [sp, #0]
 8001c1e:	421a      	tst	r2, r3
 8001c20:	d104      	bne.n	8001c2c <HAL_RCCEx_PeriphCLKConfig+0x24>
 8001c22:	6ba2      	ldr	r2, [r4, #56]	; 0x38
 8001c24:	4313      	orrs	r3, r2
 8001c26:	63a3      	str	r3, [r4, #56]	; 0x38
 8001c28:	2301      	movs	r3, #1
 8001c2a:	9300      	str	r3, [sp, #0]
 8001c2c:	2780      	movs	r7, #128	; 0x80
 8001c2e:	4e5b      	ldr	r6, [pc, #364]	; (8001d9c <HAL_RCCEx_PeriphCLKConfig+0x194>)
 8001c30:	007f      	lsls	r7, r7, #1
 8001c32:	6833      	ldr	r3, [r6, #0]
 8001c34:	423b      	tst	r3, r7
 8001c36:	d05b      	beq.n	8001cf0 <HAL_RCCEx_PeriphCLKConfig+0xe8>
 8001c38:	20c0      	movs	r0, #192	; 0xc0
 8001c3a:	22c0      	movs	r2, #192	; 0xc0
 8001c3c:	6821      	ldr	r1, [r4, #0]
 8001c3e:	686b      	ldr	r3, [r5, #4]
 8001c40:	0380      	lsls	r0, r0, #14
 8001c42:	4059      	eors	r1, r3
 8001c44:	0292      	lsls	r2, r2, #10
 8001c46:	4201      	tst	r1, r0
 8001c48:	d163      	bne.n	8001d12 <HAL_RCCEx_PeriphCLKConfig+0x10a>
 8001c4a:	6d20      	ldr	r0, [r4, #80]	; 0x50
 8001c4c:	6829      	ldr	r1, [r5, #0]
 8001c4e:	0006      	movs	r6, r0
 8001c50:	4016      	ands	r6, r2
 8001c52:	4210      	tst	r0, r2
 8001c54:	d167      	bne.n	8001d26 <HAL_RCCEx_PeriphCLKConfig+0x11e>
 8001c56:	682b      	ldr	r3, [r5, #0]
 8001c58:	069b      	lsls	r3, r3, #26
 8001c5a:	d500      	bpl.n	8001c5e <HAL_RCCEx_PeriphCLKConfig+0x56>
 8001c5c:	e078      	b.n	8001d50 <HAL_RCCEx_PeriphCLKConfig+0x148>
 8001c5e:	9b00      	ldr	r3, [sp, #0]
 8001c60:	2b01      	cmp	r3, #1
 8001c62:	d103      	bne.n	8001c6c <HAL_RCCEx_PeriphCLKConfig+0x64>
 8001c64:	6ba3      	ldr	r3, [r4, #56]	; 0x38
 8001c66:	4a4e      	ldr	r2, [pc, #312]	; (8001da0 <HAL_RCCEx_PeriphCLKConfig+0x198>)
 8001c68:	4013      	ands	r3, r2
 8001c6a:	63a3      	str	r3, [r4, #56]	; 0x38
 8001c6c:	682b      	ldr	r3, [r5, #0]
 8001c6e:	07da      	lsls	r2, r3, #31
 8001c70:	d506      	bpl.n	8001c80 <HAL_RCCEx_PeriphCLKConfig+0x78>
 8001c72:	2003      	movs	r0, #3
 8001c74:	4948      	ldr	r1, [pc, #288]	; (8001d98 <HAL_RCCEx_PeriphCLKConfig+0x190>)
 8001c76:	6cca      	ldr	r2, [r1, #76]	; 0x4c
 8001c78:	4382      	bics	r2, r0
 8001c7a:	68a8      	ldr	r0, [r5, #8]
 8001c7c:	4302      	orrs	r2, r0
 8001c7e:	64ca      	str	r2, [r1, #76]	; 0x4c
 8001c80:	079a      	lsls	r2, r3, #30
 8001c82:	d506      	bpl.n	8001c92 <HAL_RCCEx_PeriphCLKConfig+0x8a>
 8001c84:	200c      	movs	r0, #12
 8001c86:	4944      	ldr	r1, [pc, #272]	; (8001d98 <HAL_RCCEx_PeriphCLKConfig+0x190>)
 8001c88:	6cca      	ldr	r2, [r1, #76]	; 0x4c
 8001c8a:	4382      	bics	r2, r0
 8001c8c:	68e8      	ldr	r0, [r5, #12]
 8001c8e:	4302      	orrs	r2, r0
 8001c90:	64ca      	str	r2, [r1, #76]	; 0x4c
 8001c92:	075a      	lsls	r2, r3, #29
 8001c94:	d506      	bpl.n	8001ca4 <HAL_RCCEx_PeriphCLKConfig+0x9c>
 8001c96:	4940      	ldr	r1, [pc, #256]	; (8001d98 <HAL_RCCEx_PeriphCLKConfig+0x190>)
 8001c98:	4842      	ldr	r0, [pc, #264]	; (8001da4 <HAL_RCCEx_PeriphCLKConfig+0x19c>)
 8001c9a:	6cca      	ldr	r2, [r1, #76]	; 0x4c
 8001c9c:	4002      	ands	r2, r0
 8001c9e:	6928      	ldr	r0, [r5, #16]
 8001ca0:	4302      	orrs	r2, r0
 8001ca2:	64ca      	str	r2, [r1, #76]	; 0x4c
 8001ca4:	071a      	lsls	r2, r3, #28
 8001ca6:	d506      	bpl.n	8001cb6 <HAL_RCCEx_PeriphCLKConfig+0xae>
 8001ca8:	493b      	ldr	r1, [pc, #236]	; (8001d98 <HAL_RCCEx_PeriphCLKConfig+0x190>)
 8001caa:	483f      	ldr	r0, [pc, #252]	; (8001da8 <HAL_RCCEx_PeriphCLKConfig+0x1a0>)
 8001cac:	6cca      	ldr	r2, [r1, #76]	; 0x4c
 8001cae:	4002      	ands	r2, r0
 8001cb0:	6968      	ldr	r0, [r5, #20]
 8001cb2:	4302      	orrs	r2, r0
 8001cb4:	64ca      	str	r2, [r1, #76]	; 0x4c
 8001cb6:	05da      	lsls	r2, r3, #23
 8001cb8:	d506      	bpl.n	8001cc8 <HAL_RCCEx_PeriphCLKConfig+0xc0>
 8001cba:	4937      	ldr	r1, [pc, #220]	; (8001d98 <HAL_RCCEx_PeriphCLKConfig+0x190>)
 8001cbc:	483b      	ldr	r0, [pc, #236]	; (8001dac <HAL_RCCEx_PeriphCLKConfig+0x1a4>)
 8001cbe:	6cca      	ldr	r2, [r1, #76]	; 0x4c
 8001cc0:	4002      	ands	r2, r0
 8001cc2:	69a8      	ldr	r0, [r5, #24]
 8001cc4:	4302      	orrs	r2, r0
 8001cc6:	64ca      	str	r2, [r1, #76]	; 0x4c
 8001cc8:	065a      	lsls	r2, r3, #25
 8001cca:	d506      	bpl.n	8001cda <HAL_RCCEx_PeriphCLKConfig+0xd2>
 8001ccc:	4932      	ldr	r1, [pc, #200]	; (8001d98 <HAL_RCCEx_PeriphCLKConfig+0x190>)
 8001cce:	4838      	ldr	r0, [pc, #224]	; (8001db0 <HAL_RCCEx_PeriphCLKConfig+0x1a8>)
 8001cd0:	6cca      	ldr	r2, [r1, #76]	; 0x4c
 8001cd2:	4002      	ands	r2, r0
 8001cd4:	6a28      	ldr	r0, [r5, #32]
 8001cd6:	4302      	orrs	r2, r0
 8001cd8:	64ca      	str	r2, [r1, #76]	; 0x4c
 8001cda:	2000      	movs	r0, #0
 8001cdc:	061b      	lsls	r3, r3, #24
 8001cde:	d517      	bpl.n	8001d10 <HAL_RCCEx_PeriphCLKConfig+0x108>
 8001ce0:	4a2d      	ldr	r2, [pc, #180]	; (8001d98 <HAL_RCCEx_PeriphCLKConfig+0x190>)
 8001ce2:	4934      	ldr	r1, [pc, #208]	; (8001db4 <HAL_RCCEx_PeriphCLKConfig+0x1ac>)
 8001ce4:	6cd3      	ldr	r3, [r2, #76]	; 0x4c
 8001ce6:	400b      	ands	r3, r1
 8001ce8:	69e9      	ldr	r1, [r5, #28]
 8001cea:	430b      	orrs	r3, r1
 8001cec:	64d3      	str	r3, [r2, #76]	; 0x4c
 8001cee:	e00f      	b.n	8001d10 <HAL_RCCEx_PeriphCLKConfig+0x108>
 8001cf0:	6833      	ldr	r3, [r6, #0]
 8001cf2:	433b      	orrs	r3, r7
 8001cf4:	6033      	str	r3, [r6, #0]
 8001cf6:	f7fe fcf7 	bl	80006e8 <HAL_GetTick>
 8001cfa:	9001      	str	r0, [sp, #4]
 8001cfc:	6833      	ldr	r3, [r6, #0]
 8001cfe:	423b      	tst	r3, r7
 8001d00:	d19a      	bne.n	8001c38 <HAL_RCCEx_PeriphCLKConfig+0x30>
 8001d02:	f7fe fcf1 	bl	80006e8 <HAL_GetTick>
 8001d06:	9b01      	ldr	r3, [sp, #4]
 8001d08:	1ac0      	subs	r0, r0, r3
 8001d0a:	2864      	cmp	r0, #100	; 0x64
 8001d0c:	d9f6      	bls.n	8001cfc <HAL_RCCEx_PeriphCLKConfig+0xf4>
 8001d0e:	2003      	movs	r0, #3
 8001d10:	bdfe      	pop	{r1, r2, r3, r4, r5, r6, r7, pc}
 8001d12:	0019      	movs	r1, r3
 8001d14:	4011      	ands	r1, r2
 8001d16:	4291      	cmp	r1, r2
 8001d18:	d197      	bne.n	8001c4a <HAL_RCCEx_PeriphCLKConfig+0x42>
 8001d1a:	6821      	ldr	r1, [r4, #0]
 8001d1c:	2001      	movs	r0, #1
 8001d1e:	0389      	lsls	r1, r1, #14
 8001d20:	d400      	bmi.n	8001d24 <HAL_RCCEx_PeriphCLKConfig+0x11c>
 8001d22:	e792      	b.n	8001c4a <HAL_RCCEx_PeriphCLKConfig+0x42>
 8001d24:	e7f4      	b.n	8001d10 <HAL_RCCEx_PeriphCLKConfig+0x108>
 8001d26:	4013      	ands	r3, r2
 8001d28:	42b3      	cmp	r3, r6
 8001d2a:	d100      	bne.n	8001d2e <HAL_RCCEx_PeriphCLKConfig+0x126>
 8001d2c:	e793      	b.n	8001c56 <HAL_RCCEx_PeriphCLKConfig+0x4e>
 8001d2e:	0689      	lsls	r1, r1, #26
 8001d30:	d595      	bpl.n	8001c5e <HAL_RCCEx_PeriphCLKConfig+0x56>
 8001d32:	2180      	movs	r1, #128	; 0x80
 8001d34:	6d23      	ldr	r3, [r4, #80]	; 0x50
 8001d36:	6d20      	ldr	r0, [r4, #80]	; 0x50
 8001d38:	0309      	lsls	r1, r1, #12
 8001d3a:	4301      	orrs	r1, r0
 8001d3c:	6521      	str	r1, [r4, #80]	; 0x50
 8001d3e:	6d21      	ldr	r1, [r4, #80]	; 0x50
 8001d40:	4a1a      	ldr	r2, [pc, #104]	; (8001dac <HAL_RCCEx_PeriphCLKConfig+0x1a4>)
 8001d42:	481d      	ldr	r0, [pc, #116]	; (8001db8 <HAL_RCCEx_PeriphCLKConfig+0x1b0>)
 8001d44:	401a      	ands	r2, r3
 8001d46:	4001      	ands	r1, r0
 8001d48:	6521      	str	r1, [r4, #80]	; 0x50
 8001d4a:	6522      	str	r2, [r4, #80]	; 0x50
 8001d4c:	05db      	lsls	r3, r3, #23
 8001d4e:	d412      	bmi.n	8001d76 <HAL_RCCEx_PeriphCLKConfig+0x16e>
 8001d50:	6869      	ldr	r1, [r5, #4]
 8001d52:	23c0      	movs	r3, #192	; 0xc0
 8001d54:	000a      	movs	r2, r1
 8001d56:	029b      	lsls	r3, r3, #10
 8001d58:	401a      	ands	r2, r3
 8001d5a:	429a      	cmp	r2, r3
 8001d5c:	d107      	bne.n	8001d6e <HAL_RCCEx_PeriphCLKConfig+0x166>
 8001d5e:	6823      	ldr	r3, [r4, #0]
 8001d60:	4816      	ldr	r0, [pc, #88]	; (8001dbc <HAL_RCCEx_PeriphCLKConfig+0x1b4>)
 8001d62:	4003      	ands	r3, r0
 8001d64:	20c0      	movs	r0, #192	; 0xc0
 8001d66:	0380      	lsls	r0, r0, #14
 8001d68:	4001      	ands	r1, r0
 8001d6a:	430b      	orrs	r3, r1
 8001d6c:	6023      	str	r3, [r4, #0]
 8001d6e:	6d23      	ldr	r3, [r4, #80]	; 0x50
 8001d70:	431a      	orrs	r2, r3
 8001d72:	6522      	str	r2, [r4, #80]	; 0x50
 8001d74:	e773      	b.n	8001c5e <HAL_RCCEx_PeriphCLKConfig+0x56>
 8001d76:	f7fe fcb7 	bl	80006e8 <HAL_GetTick>
 8001d7a:	2780      	movs	r7, #128	; 0x80
 8001d7c:	0006      	movs	r6, r0
 8001d7e:	00bf      	lsls	r7, r7, #2
 8001d80:	6d23      	ldr	r3, [r4, #80]	; 0x50
 8001d82:	423b      	tst	r3, r7
 8001d84:	d000      	beq.n	8001d88 <HAL_RCCEx_PeriphCLKConfig+0x180>
 8001d86:	e766      	b.n	8001c56 <HAL_RCCEx_PeriphCLKConfig+0x4e>
 8001d88:	f7fe fcae 	bl	80006e8 <HAL_GetTick>
 8001d8c:	4b0c      	ldr	r3, [pc, #48]	; (8001dc0 <HAL_RCCEx_PeriphCLKConfig+0x1b8>)
 8001d8e:	1b80      	subs	r0, r0, r6
 8001d90:	4298      	cmp	r0, r3
 8001d92:	d9f5      	bls.n	8001d80 <HAL_RCCEx_PeriphCLKConfig+0x178>
 8001d94:	e7bb      	b.n	8001d0e <HAL_RCCEx_PeriphCLKConfig+0x106>
 8001d96:	46c0      	nop			; (mov r8, r8)
 8001d98:	40021000 	.word	0x40021000
 8001d9c:	40007000 	.word	0x40007000
 8001da0:	efffffff 	.word	0xefffffff
 8001da4:	fffff3ff 	.word	0xfffff3ff
 8001da8:	ffffcfff 	.word	0xffffcfff
 8001dac:	fffcffff 	.word	0xfffcffff
 8001db0:	fbffffff 	.word	0xfbffffff
 8001db4:	fff3ffff 	.word	0xfff3ffff
 8001db8:	fff7ffff 	.word	0xfff7ffff
 8001dbc:	ffcfffff 	.word	0xffcfffff
 8001dc0:	00001388 	.word	0x00001388

08001dc4 <USB_EnableGlobalInt>:
 8001dc4:	1d82      	adds	r2, r0, #6
 8001dc6:	0003      	movs	r3, r0
 8001dc8:	2000      	movs	r0, #0
 8001dca:	87d0      	strh	r0, [r2, #62]	; 0x3e
 8001dcc:	4a01      	ldr	r2, [pc, #4]	; (8001dd4 <USB_EnableGlobalInt+0x10>)
 8001dce:	3302      	adds	r3, #2
 8001dd0:	87da      	strh	r2, [r3, #62]	; 0x3e
 8001dd2:	4770      	bx	lr
 8001dd4:	ffffbf80 	.word	0xffffbf80

08001dd8 <USB_DisableGlobalInt>:
 8001dd8:	3002      	adds	r0, #2
 8001dda:	8fc3      	ldrh	r3, [r0, #62]	; 0x3e
 8001ddc:	4a02      	ldr	r2, [pc, #8]	; (8001de8 <USB_DisableGlobalInt+0x10>)
 8001dde:	4013      	ands	r3, r2
 8001de0:	87c3      	strh	r3, [r0, #62]	; 0x3e
 8001de2:	2000      	movs	r0, #0
 8001de4:	4770      	bx	lr
 8001de6:	46c0      	nop			; (mov r8, r8)
 8001de8:	0000407f 	.word	0x0000407f

08001dec <USB_DevInit>:
 8001dec:	b084      	sub	sp, #16
 8001dee:	b510      	push	{r4, lr}
 8001df0:	0004      	movs	r4, r0
 8001df2:	9204      	str	r2, [sp, #16]
 8001df4:	9305      	str	r3, [sp, #20]
 8001df6:	2201      	movs	r2, #1
 8001df8:	1c83      	adds	r3, r0, #2
 8001dfa:	2000      	movs	r0, #0
 8001dfc:	87da      	strh	r2, [r3, #62]	; 0x3e
 8001dfe:	87d8      	strh	r0, [r3, #62]	; 0x3e
 8001e00:	1da3      	adds	r3, r4, #6
 8001e02:	3450      	adds	r4, #80	; 0x50
 8001e04:	87d8      	strh	r0, [r3, #62]	; 0x3e
 8001e06:	9103      	str	r1, [sp, #12]
 8001e08:	8020      	strh	r0, [r4, #0]
 8001e0a:	bc10      	pop	{r4}
 8001e0c:	bc08      	pop	{r3}
 8001e0e:	b004      	add	sp, #16
 8001e10:	4718      	bx	r3
	...

08001e14 <USB_ActivateEndpoint>:
 8001e14:	b5f7      	push	{r0, r1, r2, r4, r5, r6, r7, lr}
 8001e16:	780e      	ldrb	r6, [r1, #0]
 8001e18:	4a79      	ldr	r2, [pc, #484]	; (8002000 <USB_ActivateEndpoint+0x1ec>)
 8001e1a:	00b3      	lsls	r3, r6, #2
 8001e1c:	18c3      	adds	r3, r0, r3
 8001e1e:	881c      	ldrh	r4, [r3, #0]
 8001e20:	78cf      	ldrb	r7, [r1, #3]
 8001e22:	4014      	ands	r4, r2
 8001e24:	2201      	movs	r2, #1
 8001e26:	0005      	movs	r5, r0
 8001e28:	9200      	str	r2, [sp, #0]
 8001e2a:	2f03      	cmp	r7, #3
 8001e2c:	d808      	bhi.n	8001e40 <USB_ActivateEndpoint+0x2c>
 8001e2e:	0038      	movs	r0, r7
 8001e30:	f7fe f96a 	bl	8000108 <__gnu_thumb1_case_uqi>
 8001e34:	3c3f4202 	.word	0x3c3f4202
 8001e38:	2280      	movs	r2, #128	; 0x80
 8001e3a:	0092      	lsls	r2, r2, #2
 8001e3c:	4314      	orrs	r4, r2
 8001e3e:	9700      	str	r7, [sp, #0]
 8001e40:	4a70      	ldr	r2, [pc, #448]	; (8002004 <USB_ActivateEndpoint+0x1f0>)
 8001e42:	4314      	orrs	r4, r2
 8001e44:	b2a4      	uxth	r4, r4
 8001e46:	801c      	strh	r4, [r3, #0]
 8001e48:	8818      	ldrh	r0, [r3, #0]
 8001e4a:	4c6f      	ldr	r4, [pc, #444]	; (8002008 <USB_ActivateEndpoint+0x1f4>)
 8001e4c:	4020      	ands	r0, r4
 8001e4e:	4330      	orrs	r0, r6
 8001e50:	4310      	orrs	r0, r2
 8001e52:	b280      	uxth	r0, r0
 8001e54:	8018      	strh	r0, [r3, #0]
 8001e56:	00f0      	lsls	r0, r6, #3
 8001e58:	4684      	mov	ip, r0
 8001e5a:	7b08      	ldrb	r0, [r1, #12]
 8001e5c:	44ac      	add	ip, r5
 8001e5e:	3550      	adds	r5, #80	; 0x50
 8001e60:	9501      	str	r5, [sp, #4]
 8001e62:	2800      	cmp	r0, #0
 8001e64:	d000      	beq.n	8001e68 <USB_ActivateEndpoint+0x54>
 8001e66:	e068      	b.n	8001f3a <USB_ActivateEndpoint+0x126>
 8001e68:	88cd      	ldrh	r5, [r1, #6]
 8001e6a:	7848      	ldrb	r0, [r1, #1]
 8001e6c:	086d      	lsrs	r5, r5, #1
 8001e6e:	006d      	lsls	r5, r5, #1
 8001e70:	2800      	cmp	r0, #0
 8001e72:	d023      	beq.n	8001ebc <USB_ActivateEndpoint+0xa8>
 8001e74:	2080      	movs	r0, #128	; 0x80
 8001e76:	9901      	ldr	r1, [sp, #4]
 8001e78:	00c0      	lsls	r0, r0, #3
 8001e7a:	8809      	ldrh	r1, [r1, #0]
 8001e7c:	4461      	add	r1, ip
 8001e7e:	1809      	adds	r1, r1, r0
 8001e80:	800d      	strh	r5, [r1, #0]
 8001e82:	8819      	ldrh	r1, [r3, #0]
 8001e84:	0649      	lsls	r1, r1, #25
 8001e86:	d504      	bpl.n	8001e92 <USB_ActivateEndpoint+0x7e>
 8001e88:	8819      	ldrh	r1, [r3, #0]
 8001e8a:	4021      	ands	r1, r4
 8001e8c:	4c5f      	ldr	r4, [pc, #380]	; (800200c <USB_ActivateEndpoint+0x1f8>)
 8001e8e:	4321      	orrs	r1, r4
 8001e90:	8019      	strh	r1, [r3, #0]
 8001e92:	4d5f      	ldr	r5, [pc, #380]	; (8002010 <USB_ActivateEndpoint+0x1fc>)
 8001e94:	2f01      	cmp	r7, #1
 8001e96:	d100      	bne.n	8001e9a <USB_ActivateEndpoint+0x86>
 8001e98:	e0ab      	b.n	8001ff2 <USB_ActivateEndpoint+0x1de>
 8001e9a:	2120      	movs	r1, #32
 8001e9c:	881c      	ldrh	r4, [r3, #0]
 8001e9e:	402c      	ands	r4, r5
 8001ea0:	4061      	eors	r1, r4
 8001ea2:	430a      	orrs	r2, r1
 8001ea4:	b292      	uxth	r2, r2
 8001ea6:	9800      	ldr	r0, [sp, #0]
 8001ea8:	801a      	strh	r2, [r3, #0]
 8001eaa:	bdfe      	pop	{r1, r2, r3, r4, r5, r6, r7, pc}
 8001eac:	22c0      	movs	r2, #192	; 0xc0
 8001eae:	00d2      	lsls	r2, r2, #3
 8001eb0:	4314      	orrs	r4, r2
 8001eb2:	2200      	movs	r2, #0
 8001eb4:	9200      	str	r2, [sp, #0]
 8001eb6:	e7c3      	b.n	8001e40 <USB_ActivateEndpoint+0x2c>
 8001eb8:	2280      	movs	r2, #128	; 0x80
 8001eba:	e7f8      	b.n	8001eae <USB_ActivateEndpoint+0x9a>
 8001ebc:	9801      	ldr	r0, [sp, #4]
 8001ebe:	6909      	ldr	r1, [r1, #16]
 8001ec0:	8807      	ldrh	r7, [r0, #0]
 8001ec2:	4854      	ldr	r0, [pc, #336]	; (8002014 <USB_ActivateEndpoint+0x200>)
 8001ec4:	4467      	add	r7, ip
 8001ec6:	183f      	adds	r7, r7, r0
 8001ec8:	9801      	ldr	r0, [sp, #4]
 8001eca:	803d      	strh	r5, [r7, #0]
 8001ecc:	8805      	ldrh	r5, [r0, #0]
 8001ece:	4852      	ldr	r0, [pc, #328]	; (8002018 <USB_ActivateEndpoint+0x204>)
 8001ed0:	4465      	add	r5, ip
 8001ed2:	182d      	adds	r5, r5, r0
 8001ed4:	882f      	ldrh	r7, [r5, #0]
 8001ed6:	05bf      	lsls	r7, r7, #22
 8001ed8:	0dbf      	lsrs	r7, r7, #22
 8001eda:	802f      	strh	r7, [r5, #0]
 8001edc:	293e      	cmp	r1, #62	; 0x3e
 8001ede:	d90d      	bls.n	8001efc <USB_ActivateEndpoint+0xe8>
 8001ee0:	201f      	movs	r0, #31
 8001ee2:	094f      	lsrs	r7, r1, #5
 8001ee4:	4001      	ands	r1, r0
 8001ee6:	0008      	movs	r0, r1
 8001ee8:	4241      	negs	r1, r0
 8001eea:	4141      	adcs	r1, r0
 8001eec:	1a7f      	subs	r7, r7, r1
 8001eee:	8829      	ldrh	r1, [r5, #0]
 8001ef0:	02bf      	lsls	r7, r7, #10
 8001ef2:	430f      	orrs	r7, r1
 8001ef4:	4949      	ldr	r1, [pc, #292]	; (800201c <USB_ActivateEndpoint+0x208>)
 8001ef6:	4339      	orrs	r1, r7
 8001ef8:	b289      	uxth	r1, r1
 8001efa:	e005      	b.n	8001f08 <USB_ActivateEndpoint+0xf4>
 8001efc:	2900      	cmp	r1, #0
 8001efe:	d115      	bne.n	8001f2c <USB_ActivateEndpoint+0x118>
 8001f00:	2780      	movs	r7, #128	; 0x80
 8001f02:	8829      	ldrh	r1, [r5, #0]
 8001f04:	023f      	lsls	r7, r7, #8
 8001f06:	4339      	orrs	r1, r7
 8001f08:	8029      	strh	r1, [r5, #0]
 8001f0a:	8819      	ldrh	r1, [r3, #0]
 8001f0c:	0449      	lsls	r1, r1, #17
 8001f0e:	d504      	bpl.n	8001f1a <USB_ActivateEndpoint+0x106>
 8001f10:	8819      	ldrh	r1, [r3, #0]
 8001f12:	4021      	ands	r1, r4
 8001f14:	4c42      	ldr	r4, [pc, #264]	; (8002020 <USB_ActivateEndpoint+0x20c>)
 8001f16:	4321      	orrs	r1, r4
 8001f18:	8019      	strh	r1, [r3, #0]
 8001f1a:	4942      	ldr	r1, [pc, #264]	; (8002024 <USB_ActivateEndpoint+0x210>)
 8001f1c:	881c      	ldrh	r4, [r3, #0]
 8001f1e:	400c      	ands	r4, r1
 8001f20:	21c0      	movs	r1, #192	; 0xc0
 8001f22:	2e00      	cmp	r6, #0
 8001f24:	d000      	beq.n	8001f28 <USB_ActivateEndpoint+0x114>
 8001f26:	2180      	movs	r1, #128	; 0x80
 8001f28:	0189      	lsls	r1, r1, #6
 8001f2a:	e7b9      	b.n	8001ea0 <USB_ActivateEndpoint+0x8c>
 8001f2c:	2001      	movs	r0, #1
 8001f2e:	084f      	lsrs	r7, r1, #1
 8001f30:	4001      	ands	r1, r0
 8001f32:	187f      	adds	r7, r7, r1
 8001f34:	02bf      	lsls	r7, r7, #10
 8001f36:	8829      	ldrh	r1, [r5, #0]
 8001f38:	e7dd      	b.n	8001ef6 <USB_ActivateEndpoint+0xe2>
 8001f3a:	881d      	ldrh	r5, [r3, #0]
 8001f3c:	2f02      	cmp	r7, #2
 8001f3e:	d13a      	bne.n	8001fb6 <USB_ActivateEndpoint+0x1a2>
 8001f40:	4e39      	ldr	r6, [pc, #228]	; (8002028 <USB_ActivateEndpoint+0x214>)
 8001f42:	4025      	ands	r5, r4
 8001f44:	4335      	orrs	r5, r6
 8001f46:	9801      	ldr	r0, [sp, #4]
 8001f48:	801d      	strh	r5, [r3, #0]
 8001f4a:	8805      	ldrh	r5, [r0, #0]
 8001f4c:	2080      	movs	r0, #128	; 0x80
 8001f4e:	890e      	ldrh	r6, [r1, #8]
 8001f50:	4465      	add	r5, ip
 8001f52:	00c0      	lsls	r0, r0, #3
 8001f54:	0876      	lsrs	r6, r6, #1
 8001f56:	182d      	adds	r5, r5, r0
 8001f58:	0076      	lsls	r6, r6, #1
 8001f5a:	9801      	ldr	r0, [sp, #4]
 8001f5c:	802e      	strh	r6, [r5, #0]
 8001f5e:	8805      	ldrh	r5, [r0, #0]
 8001f60:	894e      	ldrh	r6, [r1, #10]
 8001f62:	482c      	ldr	r0, [pc, #176]	; (8002014 <USB_ActivateEndpoint+0x200>)
 8001f64:	4465      	add	r5, ip
 8001f66:	0876      	lsrs	r6, r6, #1
 8001f68:	182d      	adds	r5, r5, r0
 8001f6a:	0076      	lsls	r6, r6, #1
 8001f6c:	802e      	strh	r6, [r5, #0]
 8001f6e:	7849      	ldrb	r1, [r1, #1]
 8001f70:	4e27      	ldr	r6, [pc, #156]	; (8002010 <USB_ActivateEndpoint+0x1fc>)
 8001f72:	468c      	mov	ip, r1
 8001f74:	2180      	movs	r1, #128	; 0x80
 8001f76:	4660      	mov	r0, ip
 8001f78:	4d2a      	ldr	r5, [pc, #168]	; (8002024 <USB_ActivateEndpoint+0x210>)
 8001f7a:	01c9      	lsls	r1, r1, #7
 8001f7c:	2800      	cmp	r0, #0
 8001f7e:	d11f      	bne.n	8001fc0 <USB_ActivateEndpoint+0x1ac>
 8001f80:	881f      	ldrh	r7, [r3, #0]
 8001f82:	420f      	tst	r7, r1
 8001f84:	d004      	beq.n	8001f90 <USB_ActivateEndpoint+0x17c>
 8001f86:	8819      	ldrh	r1, [r3, #0]
 8001f88:	4f25      	ldr	r7, [pc, #148]	; (8002020 <USB_ActivateEndpoint+0x20c>)
 8001f8a:	4021      	ands	r1, r4
 8001f8c:	4339      	orrs	r1, r7
 8001f8e:	8019      	strh	r1, [r3, #0]
 8001f90:	8819      	ldrh	r1, [r3, #0]
 8001f92:	0649      	lsls	r1, r1, #25
 8001f94:	d504      	bpl.n	8001fa0 <USB_ActivateEndpoint+0x18c>
 8001f96:	8819      	ldrh	r1, [r3, #0]
 8001f98:	4021      	ands	r1, r4
 8001f9a:	4c1c      	ldr	r4, [pc, #112]	; (800200c <USB_ActivateEndpoint+0x1f8>)
 8001f9c:	4321      	orrs	r1, r4
 8001f9e:	8019      	strh	r1, [r3, #0]
 8001fa0:	21c0      	movs	r1, #192	; 0xc0
 8001fa2:	881c      	ldrh	r4, [r3, #0]
 8001fa4:	0189      	lsls	r1, r1, #6
 8001fa6:	402c      	ands	r4, r5
 8001fa8:	4061      	eors	r1, r4
 8001faa:	4311      	orrs	r1, r2
 8001fac:	b289      	uxth	r1, r1
 8001fae:	8019      	strh	r1, [r3, #0]
 8001fb0:	8819      	ldrh	r1, [r3, #0]
 8001fb2:	4031      	ands	r1, r6
 8001fb4:	e775      	b.n	8001ea2 <USB_ActivateEndpoint+0x8e>
 8001fb6:	4e1d      	ldr	r6, [pc, #116]	; (800202c <USB_ActivateEndpoint+0x218>)
 8001fb8:	4035      	ands	r5, r6
 8001fba:	4315      	orrs	r5, r2
 8001fbc:	b2ad      	uxth	r5, r5
 8001fbe:	e7c2      	b.n	8001f46 <USB_ActivateEndpoint+0x132>
 8001fc0:	8818      	ldrh	r0, [r3, #0]
 8001fc2:	4208      	tst	r0, r1
 8001fc4:	d004      	beq.n	8001fd0 <USB_ActivateEndpoint+0x1bc>
 8001fc6:	8819      	ldrh	r1, [r3, #0]
 8001fc8:	4815      	ldr	r0, [pc, #84]	; (8002020 <USB_ActivateEndpoint+0x20c>)
 8001fca:	4021      	ands	r1, r4
 8001fcc:	4301      	orrs	r1, r0
 8001fce:	8019      	strh	r1, [r3, #0]
 8001fd0:	8819      	ldrh	r1, [r3, #0]
 8001fd2:	0649      	lsls	r1, r1, #25
 8001fd4:	d504      	bpl.n	8001fe0 <USB_ActivateEndpoint+0x1cc>
 8001fd6:	8819      	ldrh	r1, [r3, #0]
 8001fd8:	4021      	ands	r1, r4
 8001fda:	4c0c      	ldr	r4, [pc, #48]	; (800200c <USB_ActivateEndpoint+0x1f8>)
 8001fdc:	4321      	orrs	r1, r4
 8001fde:	8019      	strh	r1, [r3, #0]
 8001fe0:	2f01      	cmp	r7, #1
 8001fe2:	d009      	beq.n	8001ff8 <USB_ActivateEndpoint+0x1e4>
 8001fe4:	2120      	movs	r1, #32
 8001fe6:	881c      	ldrh	r4, [r3, #0]
 8001fe8:	4034      	ands	r4, r6
 8001fea:	4061      	eors	r1, r4
 8001fec:	4311      	orrs	r1, r2
 8001fee:	b289      	uxth	r1, r1
 8001ff0:	8019      	strh	r1, [r3, #0]
 8001ff2:	8819      	ldrh	r1, [r3, #0]
 8001ff4:	4029      	ands	r1, r5
 8001ff6:	e754      	b.n	8001ea2 <USB_ActivateEndpoint+0x8e>
 8001ff8:	8819      	ldrh	r1, [r3, #0]
 8001ffa:	4031      	ands	r1, r6
 8001ffc:	e7f6      	b.n	8001fec <USB_ActivateEndpoint+0x1d8>
 8001ffe:	46c0      	nop			; (mov r8, r8)
 8002000:	ffff898f 	.word	0xffff898f
 8002004:	ffff8080 	.word	0xffff8080
 8002008:	ffff8f8f 	.word	0xffff8f8f
 800200c:	000080c0 	.word	0x000080c0
 8002010:	ffff8fbf 	.word	0xffff8fbf
 8002014:	00000404 	.word	0x00000404
 8002018:	00000406 	.word	0x00000406
 800201c:	ffff8000 	.word	0xffff8000
 8002020:	0000c080 	.word	0x0000c080
 8002024:	ffffbf8f 	.word	0xffffbf8f
 8002028:	00008180 	.word	0x00008180
 800202c:	ffff8e8f 	.word	0xffff8e8f

08002030 <USB_DeactivateEndpoint>:
 8002030:	b5f0      	push	{r4, r5, r6, r7, lr}
 8002032:	780b      	ldrb	r3, [r1, #0]
 8002034:	784a      	ldrb	r2, [r1, #1]
 8002036:	7b09      	ldrb	r1, [r1, #12]
 8002038:	009b      	lsls	r3, r3, #2
 800203a:	18c0      	adds	r0, r0, r3
 800203c:	4b31      	ldr	r3, [pc, #196]	; (8002104 <USB_DeactivateEndpoint+0xd4>)
 800203e:	2900      	cmp	r1, #0
 8002040:	d11a      	bne.n	8002078 <USB_DeactivateEndpoint+0x48>
 8002042:	2a00      	cmp	r2, #0
 8002044:	d00c      	beq.n	8002060 <USB_DeactivateEndpoint+0x30>
 8002046:	8802      	ldrh	r2, [r0, #0]
 8002048:	0652      	lsls	r2, r2, #25
 800204a:	d505      	bpl.n	8002058 <USB_DeactivateEndpoint+0x28>
 800204c:	8802      	ldrh	r2, [r0, #0]
 800204e:	492e      	ldr	r1, [pc, #184]	; (8002108 <USB_DeactivateEndpoint+0xd8>)
 8002050:	400a      	ands	r2, r1
 8002052:	492e      	ldr	r1, [pc, #184]	; (800210c <USB_DeactivateEndpoint+0xdc>)
 8002054:	430a      	orrs	r2, r1
 8002056:	8002      	strh	r2, [r0, #0]
 8002058:	8802      	ldrh	r2, [r0, #0]
 800205a:	492d      	ldr	r1, [pc, #180]	; (8002110 <USB_DeactivateEndpoint+0xe0>)
 800205c:	400a      	ands	r2, r1
 800205e:	e02f      	b.n	80020c0 <USB_DeactivateEndpoint+0x90>
 8002060:	8802      	ldrh	r2, [r0, #0]
 8002062:	0452      	lsls	r2, r2, #17
 8002064:	d505      	bpl.n	8002072 <USB_DeactivateEndpoint+0x42>
 8002066:	8802      	ldrh	r2, [r0, #0]
 8002068:	4927      	ldr	r1, [pc, #156]	; (8002108 <USB_DeactivateEndpoint+0xd8>)
 800206a:	400a      	ands	r2, r1
 800206c:	4929      	ldr	r1, [pc, #164]	; (8002114 <USB_DeactivateEndpoint+0xe4>)
 800206e:	430a      	orrs	r2, r1
 8002070:	8002      	strh	r2, [r0, #0]
 8002072:	8802      	ldrh	r2, [r0, #0]
 8002074:	4928      	ldr	r1, [pc, #160]	; (8002118 <USB_DeactivateEndpoint+0xe8>)
 8002076:	e7f1      	b.n	800205c <USB_DeactivateEndpoint+0x2c>
 8002078:	2780      	movs	r7, #128	; 0x80
 800207a:	4e23      	ldr	r6, [pc, #140]	; (8002108 <USB_DeactivateEndpoint+0xd8>)
 800207c:	4d24      	ldr	r5, [pc, #144]	; (8002110 <USB_DeactivateEndpoint+0xe0>)
 800207e:	4926      	ldr	r1, [pc, #152]	; (8002118 <USB_DeactivateEndpoint+0xe8>)
 8002080:	01ff      	lsls	r7, r7, #7
 8002082:	2a00      	cmp	r2, #0
 8002084:	d121      	bne.n	80020ca <USB_DeactivateEndpoint+0x9a>
 8002086:	8802      	ldrh	r2, [r0, #0]
 8002088:	423a      	tst	r2, r7
 800208a:	d004      	beq.n	8002096 <USB_DeactivateEndpoint+0x66>
 800208c:	8802      	ldrh	r2, [r0, #0]
 800208e:	4c21      	ldr	r4, [pc, #132]	; (8002114 <USB_DeactivateEndpoint+0xe4>)
 8002090:	4032      	ands	r2, r6
 8002092:	4322      	orrs	r2, r4
 8002094:	8002      	strh	r2, [r0, #0]
 8002096:	8802      	ldrh	r2, [r0, #0]
 8002098:	4c20      	ldr	r4, [pc, #128]	; (800211c <USB_DeactivateEndpoint+0xec>)
 800209a:	0652      	lsls	r2, r2, #25
 800209c:	d504      	bpl.n	80020a8 <USB_DeactivateEndpoint+0x78>
 800209e:	8802      	ldrh	r2, [r0, #0]
 80020a0:	4032      	ands	r2, r6
 80020a2:	4322      	orrs	r2, r4
 80020a4:	b292      	uxth	r2, r2
 80020a6:	8002      	strh	r2, [r0, #0]
 80020a8:	8802      	ldrh	r2, [r0, #0]
 80020aa:	4032      	ands	r2, r6
 80020ac:	4314      	orrs	r4, r2
 80020ae:	b2a4      	uxth	r4, r4
 80020b0:	8004      	strh	r4, [r0, #0]
 80020b2:	8802      	ldrh	r2, [r0, #0]
 80020b4:	400a      	ands	r2, r1
 80020b6:	431a      	orrs	r2, r3
 80020b8:	b292      	uxth	r2, r2
 80020ba:	8002      	strh	r2, [r0, #0]
 80020bc:	8802      	ldrh	r2, [r0, #0]
 80020be:	402a      	ands	r2, r5
 80020c0:	4313      	orrs	r3, r2
 80020c2:	b29b      	uxth	r3, r3
 80020c4:	8003      	strh	r3, [r0, #0]
 80020c6:	2000      	movs	r0, #0
 80020c8:	bdf0      	pop	{r4, r5, r6, r7, pc}
 80020ca:	8802      	ldrh	r2, [r0, #0]
 80020cc:	4c14      	ldr	r4, [pc, #80]	; (8002120 <USB_DeactivateEndpoint+0xf0>)
 80020ce:	423a      	tst	r2, r7
 80020d0:	d004      	beq.n	80020dc <USB_DeactivateEndpoint+0xac>
 80020d2:	8802      	ldrh	r2, [r0, #0]
 80020d4:	4032      	ands	r2, r6
 80020d6:	4322      	orrs	r2, r4
 80020d8:	b292      	uxth	r2, r2
 80020da:	8002      	strh	r2, [r0, #0]
 80020dc:	8802      	ldrh	r2, [r0, #0]
 80020de:	0652      	lsls	r2, r2, #25
 80020e0:	d504      	bpl.n	80020ec <USB_DeactivateEndpoint+0xbc>
 80020e2:	8802      	ldrh	r2, [r0, #0]
 80020e4:	4f09      	ldr	r7, [pc, #36]	; (800210c <USB_DeactivateEndpoint+0xdc>)
 80020e6:	4032      	ands	r2, r6
 80020e8:	433a      	orrs	r2, r7
 80020ea:	8002      	strh	r2, [r0, #0]
 80020ec:	8802      	ldrh	r2, [r0, #0]
 80020ee:	4032      	ands	r2, r6
 80020f0:	4314      	orrs	r4, r2
 80020f2:	b2a4      	uxth	r4, r4
 80020f4:	8004      	strh	r4, [r0, #0]
 80020f6:	8802      	ldrh	r2, [r0, #0]
 80020f8:	402a      	ands	r2, r5
 80020fa:	431a      	orrs	r2, r3
 80020fc:	b292      	uxth	r2, r2
 80020fe:	8002      	strh	r2, [r0, #0]
 8002100:	8802      	ldrh	r2, [r0, #0]
 8002102:	e7ab      	b.n	800205c <USB_DeactivateEndpoint+0x2c>
 8002104:	ffff8080 	.word	0xffff8080
 8002108:	ffff8f8f 	.word	0xffff8f8f
 800210c:	000080c0 	.word	0x000080c0
 8002110:	ffff8fbf 	.word	0xffff8fbf
 8002114:	0000c080 	.word	0x0000c080
 8002118:	ffffbf8f 	.word	0xffffbf8f
 800211c:	ffff80c0 	.word	0xffff80c0
 8002120:	ffffc080 	.word	0xffffc080

08002124 <USB_EPSetStall>:
 8002124:	780b      	ldrb	r3, [r1, #0]
 8002126:	4a0c      	ldr	r2, [pc, #48]	; (8002158 <USB_EPSetStall+0x34>)
 8002128:	009b      	lsls	r3, r3, #2
 800212a:	18c0      	adds	r0, r0, r3
 800212c:	784b      	ldrb	r3, [r1, #1]
 800212e:	8801      	ldrh	r1, [r0, #0]
 8002130:	2b00      	cmp	r3, #0
 8002132:	d008      	beq.n	8002146 <USB_EPSetStall+0x22>
 8002134:	4b09      	ldr	r3, [pc, #36]	; (800215c <USB_EPSetStall+0x38>)
 8002136:	4019      	ands	r1, r3
 8002138:	2310      	movs	r3, #16
 800213a:	404b      	eors	r3, r1
 800213c:	4313      	orrs	r3, r2
 800213e:	b29b      	uxth	r3, r3
 8002140:	8003      	strh	r3, [r0, #0]
 8002142:	2000      	movs	r0, #0
 8002144:	4770      	bx	lr
 8002146:	4b06      	ldr	r3, [pc, #24]	; (8002160 <USB_EPSetStall+0x3c>)
 8002148:	4019      	ands	r1, r3
 800214a:	2380      	movs	r3, #128	; 0x80
 800214c:	015b      	lsls	r3, r3, #5
 800214e:	404b      	eors	r3, r1
 8002150:	431a      	orrs	r2, r3
 8002152:	b292      	uxth	r2, r2
 8002154:	8002      	strh	r2, [r0, #0]
 8002156:	e7f4      	b.n	8002142 <USB_EPSetStall+0x1e>
 8002158:	ffff8080 	.word	0xffff8080
 800215c:	ffff8fbf 	.word	0xffff8fbf
 8002160:	ffffbf8f 	.word	0xffffbf8f

08002164 <USB_EPClearStall>:
 8002164:	7b0b      	ldrb	r3, [r1, #12]
 8002166:	2b00      	cmp	r3, #0
 8002168:	d119      	bne.n	800219e <USB_EPClearStall+0x3a>
 800216a:	780b      	ldrb	r3, [r1, #0]
 800216c:	009b      	lsls	r3, r3, #2
 800216e:	18c0      	adds	r0, r0, r3
 8002170:	784b      	ldrb	r3, [r1, #1]
 8002172:	2b00      	cmp	r3, #0
 8002174:	d015      	beq.n	80021a2 <USB_EPClearStall+0x3e>
 8002176:	8803      	ldrh	r3, [r0, #0]
 8002178:	065b      	lsls	r3, r3, #25
 800217a:	d505      	bpl.n	8002188 <USB_EPClearStall+0x24>
 800217c:	8803      	ldrh	r3, [r0, #0]
 800217e:	4a10      	ldr	r2, [pc, #64]	; (80021c0 <USB_EPClearStall+0x5c>)
 8002180:	4013      	ands	r3, r2
 8002182:	4a10      	ldr	r2, [pc, #64]	; (80021c4 <USB_EPClearStall+0x60>)
 8002184:	4313      	orrs	r3, r2
 8002186:	8003      	strh	r3, [r0, #0]
 8002188:	78cb      	ldrb	r3, [r1, #3]
 800218a:	2b01      	cmp	r3, #1
 800218c:	d007      	beq.n	800219e <USB_EPClearStall+0x3a>
 800218e:	4b0e      	ldr	r3, [pc, #56]	; (80021c8 <USB_EPClearStall+0x64>)
 8002190:	8802      	ldrh	r2, [r0, #0]
 8002192:	401a      	ands	r2, r3
 8002194:	2320      	movs	r3, #32
 8002196:	4053      	eors	r3, r2
 8002198:	4a0c      	ldr	r2, [pc, #48]	; (80021cc <USB_EPClearStall+0x68>)
 800219a:	4313      	orrs	r3, r2
 800219c:	8003      	strh	r3, [r0, #0]
 800219e:	2000      	movs	r0, #0
 80021a0:	4770      	bx	lr
 80021a2:	8803      	ldrh	r3, [r0, #0]
 80021a4:	045b      	lsls	r3, r3, #17
 80021a6:	d505      	bpl.n	80021b4 <USB_EPClearStall+0x50>
 80021a8:	8803      	ldrh	r3, [r0, #0]
 80021aa:	4a05      	ldr	r2, [pc, #20]	; (80021c0 <USB_EPClearStall+0x5c>)
 80021ac:	4013      	ands	r3, r2
 80021ae:	4a08      	ldr	r2, [pc, #32]	; (80021d0 <USB_EPClearStall+0x6c>)
 80021b0:	4313      	orrs	r3, r2
 80021b2:	8003      	strh	r3, [r0, #0]
 80021b4:	4b07      	ldr	r3, [pc, #28]	; (80021d4 <USB_EPClearStall+0x70>)
 80021b6:	8802      	ldrh	r2, [r0, #0]
 80021b8:	401a      	ands	r2, r3
 80021ba:	23c0      	movs	r3, #192	; 0xc0
 80021bc:	019b      	lsls	r3, r3, #6
 80021be:	e7ea      	b.n	8002196 <USB_EPClearStall+0x32>
 80021c0:	ffff8f8f 	.word	0xffff8f8f
 80021c4:	000080c0 	.word	0x000080c0
 80021c8:	ffff8fbf 	.word	0xffff8fbf
 80021cc:	00008080 	.word	0x00008080
 80021d0:	0000c080 	.word	0x0000c080
 80021d4:	ffffbf8f 	.word	0xffffbf8f

080021d8 <USB_SetDevAddress>:
 80021d8:	2900      	cmp	r1, #0
 80021da:	d102      	bne.n	80021e2 <USB_SetDevAddress+0xa>
 80021dc:	2380      	movs	r3, #128	; 0x80
 80021de:	304c      	adds	r0, #76	; 0x4c
 80021e0:	8003      	strh	r3, [r0, #0]
 80021e2:	2000      	movs	r0, #0
 80021e4:	4770      	bx	lr

080021e6 <USB_DevConnect>:
 80021e6:	2280      	movs	r2, #128	; 0x80
 80021e8:	3058      	adds	r0, #88	; 0x58
 80021ea:	8803      	ldrh	r3, [r0, #0]
 80021ec:	0212      	lsls	r2, r2, #8
 80021ee:	4313      	orrs	r3, r2
 80021f0:	8003      	strh	r3, [r0, #0]
 80021f2:	2000      	movs	r0, #0
 80021f4:	4770      	bx	lr

080021f6 <USB_ReadInterrupts>:
 80021f6:	3006      	adds	r0, #6
 80021f8:	8fc0      	ldrh	r0, [r0, #62]	; 0x3e
 80021fa:	b280      	uxth	r0, r0
 80021fc:	4770      	bx	lr

080021fe <USB_WritePMA>:
 80021fe:	b530      	push	{r4, r5, lr}
 8002200:	2480      	movs	r4, #128	; 0x80
 8002202:	3301      	adds	r3, #1
 8002204:	00e4      	lsls	r4, r4, #3
 8002206:	1912      	adds	r2, r2, r4
 8002208:	085b      	lsrs	r3, r3, #1
 800220a:	1880      	adds	r0, r0, r2
 800220c:	005b      	lsls	r3, r3, #1
 800220e:	18cb      	adds	r3, r1, r3
 8002210:	1a40      	subs	r0, r0, r1
 8002212:	1844      	adds	r4, r0, r1
 8002214:	428b      	cmp	r3, r1
 8002216:	d100      	bne.n	800221a <USB_WritePMA+0x1c>
 8002218:	bd30      	pop	{r4, r5, pc}
 800221a:	784a      	ldrb	r2, [r1, #1]
 800221c:	780d      	ldrb	r5, [r1, #0]
 800221e:	0212      	lsls	r2, r2, #8
 8002220:	432a      	orrs	r2, r5
 8002222:	8022      	strh	r2, [r4, #0]
 8002224:	3102      	adds	r1, #2
 8002226:	e7f4      	b.n	8002212 <USB_WritePMA+0x14>

08002228 <USB_EPStartXfer>:
 8002228:	b5f0      	push	{r4, r5, r6, r7, lr}
 800222a:	784a      	ldrb	r2, [r1, #1]
 800222c:	0005      	movs	r5, r0
 800222e:	000c      	movs	r4, r1
 8002230:	7b0b      	ldrb	r3, [r1, #12]
 8002232:	b087      	sub	sp, #28
 8002234:	2a01      	cmp	r2, #1
 8002236:	d000      	beq.n	800223a <USB_EPStartXfer+0x12>
 8002238:	e11b      	b.n	8002472 <USB_EPStartXfer+0x24a>
 800223a:	690a      	ldr	r2, [r1, #16]
 800223c:	698f      	ldr	r7, [r1, #24]
 800223e:	9202      	str	r2, [sp, #8]
 8002240:	4297      	cmp	r7, r2
 8002242:	d900      	bls.n	8002246 <USB_EPStartXfer+0x1e>
 8002244:	0017      	movs	r7, r2
 8002246:	002a      	movs	r2, r5
 8002248:	3250      	adds	r2, #80	; 0x50
 800224a:	6961      	ldr	r1, [r4, #20]
 800224c:	9201      	str	r2, [sp, #4]
 800224e:	2b00      	cmp	r3, #0
 8002250:	d11d      	bne.n	800228e <USB_EPStartXfer+0x66>
 8002252:	b2bf      	uxth	r7, r7
 8002254:	003b      	movs	r3, r7
 8002256:	88e2      	ldrh	r2, [r4, #6]
 8002258:	0028      	movs	r0, r5
 800225a:	f7ff ffd0 	bl	80021fe <USB_WritePMA>
 800225e:	9b01      	ldr	r3, [sp, #4]
 8002260:	4ab5      	ldr	r2, [pc, #724]	; (8002538 <USB_EPStartXfer+0x310>)
 8002262:	8819      	ldrh	r1, [r3, #0]
 8002264:	7823      	ldrb	r3, [r4, #0]
 8002266:	18aa      	adds	r2, r5, r2
 8002268:	00db      	lsls	r3, r3, #3
 800226a:	1852      	adds	r2, r2, r1
 800226c:	189b      	adds	r3, r3, r2
 800226e:	801f      	strh	r7, [r3, #0]
 8002270:	7823      	ldrb	r3, [r4, #0]
 8002272:	4ab2      	ldr	r2, [pc, #712]	; (800253c <USB_EPStartXfer+0x314>)
 8002274:	009b      	lsls	r3, r3, #2
 8002276:	18eb      	adds	r3, r5, r3
 8002278:	8819      	ldrh	r1, [r3, #0]
 800227a:	4011      	ands	r1, r2
 800227c:	2230      	movs	r2, #48	; 0x30
 800227e:	404a      	eors	r2, r1
 8002280:	49af      	ldr	r1, [pc, #700]	; (8002540 <USB_EPStartXfer+0x318>)
 8002282:	430a      	orrs	r2, r1
 8002284:	b292      	uxth	r2, r2
 8002286:	2000      	movs	r0, #0
 8002288:	801a      	strh	r2, [r3, #0]
 800228a:	b007      	add	sp, #28
 800228c:	bdf0      	pop	{r4, r5, r6, r7, pc}
 800228e:	7822      	ldrb	r2, [r4, #0]
 8002290:	78e0      	ldrb	r0, [r4, #3]
 8002292:	0093      	lsls	r3, r2, #2
 8002294:	00d2      	lsls	r2, r2, #3
 8002296:	6a26      	ldr	r6, [r4, #32]
 8002298:	18eb      	adds	r3, r5, r3
 800229a:	9203      	str	r2, [sp, #12]
 800229c:	2802      	cmp	r0, #2
 800229e:	d000      	beq.n	80022a2 <USB_EPStartXfer+0x7a>
 80022a0:	e0d1      	b.n	8002446 <USB_EPStartXfer+0x21e>
 80022a2:	9a02      	ldr	r2, [sp, #8]
 80022a4:	42b2      	cmp	r2, r6
 80022a6:	d300      	bcc.n	80022aa <USB_EPStartXfer+0x82>
 80022a8:	e0bb      	b.n	8002422 <USB_EPStartXfer+0x1fa>
 80022aa:	881a      	ldrh	r2, [r3, #0]
 80022ac:	48a5      	ldr	r0, [pc, #660]	; (8002544 <USB_EPStartXfer+0x31c>)
 80022ae:	1bf6      	subs	r6, r6, r7
 80022b0:	4010      	ands	r0, r2
 80022b2:	4aa5      	ldr	r2, [pc, #660]	; (8002548 <USB_EPStartXfer+0x320>)
 80022b4:	4310      	orrs	r0, r2
 80022b6:	8018      	strh	r0, [r3, #0]
 80022b8:	881b      	ldrh	r3, [r3, #0]
 80022ba:	2040      	movs	r0, #64	; 0x40
 80022bc:	469c      	mov	ip, r3
 80022be:	4662      	mov	r2, ip
 80022c0:	4002      	ands	r2, r0
 80022c2:	9205      	str	r2, [sp, #20]
 80022c4:	4662      	mov	r2, ip
 80022c6:	19cb      	adds	r3, r1, r7
 80022c8:	9304      	str	r3, [sp, #16]
 80022ca:	6226      	str	r6, [r4, #32]
 80022cc:	b2bb      	uxth	r3, r7
 80022ce:	4202      	tst	r2, r0
 80022d0:	d055      	beq.n	800237e <USB_EPStartXfer+0x156>
 80022d2:	9a01      	ldr	r2, [sp, #4]
 80022d4:	8812      	ldrh	r2, [r2, #0]
 80022d6:	4694      	mov	ip, r2
 80022d8:	4a9c      	ldr	r2, [pc, #624]	; (800254c <USB_EPStartXfer+0x324>)
 80022da:	18a8      	adds	r0, r5, r2
 80022dc:	9a03      	ldr	r2, [sp, #12]
 80022de:	4460      	add	r0, ip
 80022e0:	1882      	adds	r2, r0, r2
 80022e2:	8013      	strh	r3, [r2, #0]
 80022e4:	8962      	ldrh	r2, [r4, #10]
 80022e6:	0028      	movs	r0, r5
 80022e8:	f7ff ff89 	bl	80021fe <USB_WritePMA>
 80022ec:	9b04      	ldr	r3, [sp, #16]
 80022ee:	9a02      	ldr	r2, [sp, #8]
 80022f0:	6163      	str	r3, [r4, #20]
 80022f2:	2300      	movs	r3, #0
 80022f4:	42b2      	cmp	r2, r6
 80022f6:	d201      	bcs.n	80022fc <USB_EPStartXfer+0xd4>
 80022f8:	1bf3      	subs	r3, r6, r7
 80022fa:	003e      	movs	r6, r7
 80022fc:	7862      	ldrb	r2, [r4, #1]
 80022fe:	6223      	str	r3, [r4, #32]
 8002300:	b2b3      	uxth	r3, r6
 8002302:	2a00      	cmp	r2, #0
 8002304:	d12e      	bne.n	8002364 <USB_EPStartXfer+0x13c>
 8002306:	9a01      	ldr	r2, [sp, #4]
 8002308:	498b      	ldr	r1, [pc, #556]	; (8002538 <USB_EPStartXfer+0x310>)
 800230a:	8810      	ldrh	r0, [r2, #0]
 800230c:	7822      	ldrb	r2, [r4, #0]
 800230e:	1869      	adds	r1, r5, r1
 8002310:	1809      	adds	r1, r1, r0
 8002312:	00d2      	lsls	r2, r2, #3
 8002314:	1852      	adds	r2, r2, r1
 8002316:	8811      	ldrh	r1, [r2, #0]
 8002318:	0589      	lsls	r1, r1, #22
 800231a:	0d89      	lsrs	r1, r1, #22
 800231c:	8011      	strh	r1, [r2, #0]
 800231e:	2e3e      	cmp	r6, #62	; 0x3e
 8002320:	d90c      	bls.n	800233c <USB_EPStartXfer+0x114>
 8002322:	201f      	movs	r0, #31
 8002324:	4030      	ands	r0, r6
 8002326:	0971      	lsrs	r1, r6, #5
 8002328:	4246      	negs	r6, r0
 800232a:	4170      	adcs	r0, r6
 800232c:	1a09      	subs	r1, r1, r0
 800232e:	8810      	ldrh	r0, [r2, #0]
 8002330:	0289      	lsls	r1, r1, #10
 8002332:	4308      	orrs	r0, r1
 8002334:	4986      	ldr	r1, [pc, #536]	; (8002550 <USB_EPStartXfer+0x328>)
 8002336:	4301      	orrs	r1, r0
 8002338:	b289      	uxth	r1, r1
 800233a:	e005      	b.n	8002348 <USB_EPStartXfer+0x120>
 800233c:	2e00      	cmp	r6, #0
 800233e:	d10a      	bne.n	8002356 <USB_EPStartXfer+0x12e>
 8002340:	2080      	movs	r0, #128	; 0x80
 8002342:	8811      	ldrh	r1, [r2, #0]
 8002344:	0200      	lsls	r0, r0, #8
 8002346:	4301      	orrs	r1, r0
 8002348:	8011      	strh	r1, [r2, #0]
 800234a:	8922      	ldrh	r2, [r4, #8]
 800234c:	9904      	ldr	r1, [sp, #16]
 800234e:	0028      	movs	r0, r5
 8002350:	f7ff ff55 	bl	80021fe <USB_WritePMA>
 8002354:	e78c      	b.n	8002270 <USB_EPStartXfer+0x48>
 8002356:	2101      	movs	r1, #1
 8002358:	0870      	lsrs	r0, r6, #1
 800235a:	4031      	ands	r1, r6
 800235c:	1840      	adds	r0, r0, r1
 800235e:	0280      	lsls	r0, r0, #10
 8002360:	8811      	ldrh	r1, [r2, #0]
 8002362:	e7e8      	b.n	8002336 <USB_EPStartXfer+0x10e>
 8002364:	2a01      	cmp	r2, #1
 8002366:	d1f0      	bne.n	800234a <USB_EPStartXfer+0x122>
 8002368:	002a      	movs	r2, r5
 800236a:	4973      	ldr	r1, [pc, #460]	; (8002538 <USB_EPStartXfer+0x310>)
 800236c:	3250      	adds	r2, #80	; 0x50
 800236e:	8810      	ldrh	r0, [r2, #0]
 8002370:	7822      	ldrb	r2, [r4, #0]
 8002372:	1869      	adds	r1, r5, r1
 8002374:	00d2      	lsls	r2, r2, #3
 8002376:	1809      	adds	r1, r1, r0
 8002378:	1852      	adds	r2, r2, r1
 800237a:	8013      	strh	r3, [r2, #0]
 800237c:	e7e5      	b.n	800234a <USB_EPStartXfer+0x122>
 800237e:	9a01      	ldr	r2, [sp, #4]
 8002380:	8812      	ldrh	r2, [r2, #0]
 8002382:	4694      	mov	ip, r2
 8002384:	4a6c      	ldr	r2, [pc, #432]	; (8002538 <USB_EPStartXfer+0x310>)
 8002386:	18a8      	adds	r0, r5, r2
 8002388:	9a03      	ldr	r2, [sp, #12]
 800238a:	4460      	add	r0, ip
 800238c:	1882      	adds	r2, r0, r2
 800238e:	8013      	strh	r3, [r2, #0]
 8002390:	8922      	ldrh	r2, [r4, #8]
 8002392:	0028      	movs	r0, r5
 8002394:	f7ff ff33 	bl	80021fe <USB_WritePMA>
 8002398:	9b04      	ldr	r3, [sp, #16]
 800239a:	9a02      	ldr	r2, [sp, #8]
 800239c:	6163      	str	r3, [r4, #20]
 800239e:	9b05      	ldr	r3, [sp, #20]
 80023a0:	42b2      	cmp	r2, r6
 80023a2:	d201      	bcs.n	80023a8 <USB_EPStartXfer+0x180>
 80023a4:	1bf3      	subs	r3, r6, r7
 80023a6:	003e      	movs	r6, r7
 80023a8:	7862      	ldrb	r2, [r4, #1]
 80023aa:	6223      	str	r3, [r4, #32]
 80023ac:	b2b3      	uxth	r3, r6
 80023ae:	2a00      	cmp	r2, #0
 80023b0:	d12a      	bne.n	8002408 <USB_EPStartXfer+0x1e0>
 80023b2:	9a01      	ldr	r2, [sp, #4]
 80023b4:	4965      	ldr	r1, [pc, #404]	; (800254c <USB_EPStartXfer+0x324>)
 80023b6:	8810      	ldrh	r0, [r2, #0]
 80023b8:	7822      	ldrb	r2, [r4, #0]
 80023ba:	1869      	adds	r1, r5, r1
 80023bc:	1809      	adds	r1, r1, r0
 80023be:	00d2      	lsls	r2, r2, #3
 80023c0:	1852      	adds	r2, r2, r1
 80023c2:	8811      	ldrh	r1, [r2, #0]
 80023c4:	0589      	lsls	r1, r1, #22
 80023c6:	0d89      	lsrs	r1, r1, #22
 80023c8:	8011      	strh	r1, [r2, #0]
 80023ca:	2e3e      	cmp	r6, #62	; 0x3e
 80023cc:	d90c      	bls.n	80023e8 <USB_EPStartXfer+0x1c0>
 80023ce:	201f      	movs	r0, #31
 80023d0:	4030      	ands	r0, r6
 80023d2:	0971      	lsrs	r1, r6, #5
 80023d4:	4246      	negs	r6, r0
 80023d6:	4170      	adcs	r0, r6
 80023d8:	1a09      	subs	r1, r1, r0
 80023da:	8810      	ldrh	r0, [r2, #0]
 80023dc:	0289      	lsls	r1, r1, #10
 80023de:	4308      	orrs	r0, r1
 80023e0:	495b      	ldr	r1, [pc, #364]	; (8002550 <USB_EPStartXfer+0x328>)
 80023e2:	4301      	orrs	r1, r0
 80023e4:	b289      	uxth	r1, r1
 80023e6:	e005      	b.n	80023f4 <USB_EPStartXfer+0x1cc>
 80023e8:	2e00      	cmp	r6, #0
 80023ea:	d106      	bne.n	80023fa <USB_EPStartXfer+0x1d2>
 80023ec:	2080      	movs	r0, #128	; 0x80
 80023ee:	8811      	ldrh	r1, [r2, #0]
 80023f0:	0200      	lsls	r0, r0, #8
 80023f2:	4301      	orrs	r1, r0
 80023f4:	8011      	strh	r1, [r2, #0]
 80023f6:	8962      	ldrh	r2, [r4, #10]
 80023f8:	e7a8      	b.n	800234c <USB_EPStartXfer+0x124>
 80023fa:	2101      	movs	r1, #1
 80023fc:	0870      	lsrs	r0, r6, #1
 80023fe:	400e      	ands	r6, r1
 8002400:	1980      	adds	r0, r0, r6
 8002402:	8811      	ldrh	r1, [r2, #0]
 8002404:	0280      	lsls	r0, r0, #10
 8002406:	e7ec      	b.n	80023e2 <USB_EPStartXfer+0x1ba>
 8002408:	2a01      	cmp	r2, #1
 800240a:	d1f4      	bne.n	80023f6 <USB_EPStartXfer+0x1ce>
 800240c:	002a      	movs	r2, r5
 800240e:	494f      	ldr	r1, [pc, #316]	; (800254c <USB_EPStartXfer+0x324>)
 8002410:	3250      	adds	r2, #80	; 0x50
 8002412:	8810      	ldrh	r0, [r2, #0]
 8002414:	7822      	ldrb	r2, [r4, #0]
 8002416:	1869      	adds	r1, r5, r1
 8002418:	00d2      	lsls	r2, r2, #3
 800241a:	1809      	adds	r1, r1, r0
 800241c:	1852      	adds	r2, r2, r1
 800241e:	8013      	strh	r3, [r2, #0]
 8002420:	e7e9      	b.n	80023f6 <USB_EPStartXfer+0x1ce>
 8002422:	8818      	ldrh	r0, [r3, #0]
 8002424:	4f4b      	ldr	r7, [pc, #300]	; (8002554 <USB_EPStartXfer+0x32c>)
 8002426:	4a46      	ldr	r2, [pc, #280]	; (8002540 <USB_EPStartXfer+0x318>)
 8002428:	4038      	ands	r0, r7
 800242a:	4310      	orrs	r0, r2
 800242c:	b280      	uxth	r0, r0
 800242e:	8018      	strh	r0, [r3, #0]
 8002430:	9b01      	ldr	r3, [sp, #4]
 8002432:	9a03      	ldr	r2, [sp, #12]
 8002434:	8818      	ldrh	r0, [r3, #0]
 8002436:	4b40      	ldr	r3, [pc, #256]	; (8002538 <USB_EPStartXfer+0x310>)
 8002438:	18eb      	adds	r3, r5, r3
 800243a:	181b      	adds	r3, r3, r0
 800243c:	189a      	adds	r2, r3, r2
 800243e:	b2b3      	uxth	r3, r6
 8002440:	8013      	strh	r3, [r2, #0]
 8002442:	8922      	ldrh	r2, [r4, #8]
 8002444:	e783      	b.n	800234e <USB_EPStartXfer+0x126>
 8002446:	8818      	ldrh	r0, [r3, #0]
 8002448:	1bf6      	subs	r6, r6, r7
 800244a:	9a01      	ldr	r2, [sp, #4]
 800244c:	6226      	str	r6, [r4, #32]
 800244e:	8816      	ldrh	r6, [r2, #0]
 8002450:	b2bb      	uxth	r3, r7
 8002452:	0640      	lsls	r0, r0, #25
 8002454:	d507      	bpl.n	8002466 <USB_EPStartXfer+0x23e>
 8002456:	4a3d      	ldr	r2, [pc, #244]	; (800254c <USB_EPStartXfer+0x324>)
 8002458:	18a8      	adds	r0, r5, r2
 800245a:	9a03      	ldr	r2, [sp, #12]
 800245c:	1980      	adds	r0, r0, r6
 800245e:	1882      	adds	r2, r0, r2
 8002460:	8013      	strh	r3, [r2, #0]
 8002462:	8962      	ldrh	r2, [r4, #10]
 8002464:	e773      	b.n	800234e <USB_EPStartXfer+0x126>
 8002466:	4a34      	ldr	r2, [pc, #208]	; (8002538 <USB_EPStartXfer+0x310>)
 8002468:	18a8      	adds	r0, r5, r2
 800246a:	9a03      	ldr	r2, [sp, #12]
 800246c:	1980      	adds	r0, r0, r6
 800246e:	1882      	adds	r2, r0, r2
 8002470:	e7e6      	b.n	8002440 <USB_EPStartXfer+0x218>
 8002472:	2b00      	cmp	r3, #0
 8002474:	d13c      	bne.n	80024f0 <USB_EPStartXfer+0x2c8>
 8002476:	698a      	ldr	r2, [r1, #24]
 8002478:	6909      	ldr	r1, [r1, #16]
 800247a:	428a      	cmp	r2, r1
 800247c:	d901      	bls.n	8002482 <USB_EPStartXfer+0x25a>
 800247e:	1a53      	subs	r3, r2, r1
 8002480:	000a      	movs	r2, r1
 8002482:	61a3      	str	r3, [r4, #24]
 8002484:	002b      	movs	r3, r5
 8002486:	4931      	ldr	r1, [pc, #196]	; (800254c <USB_EPStartXfer+0x324>)
 8002488:	3350      	adds	r3, #80	; 0x50
 800248a:	8818      	ldrh	r0, [r3, #0]
 800248c:	7823      	ldrb	r3, [r4, #0]
 800248e:	1869      	adds	r1, r5, r1
 8002490:	1809      	adds	r1, r1, r0
 8002492:	00db      	lsls	r3, r3, #3
 8002494:	185b      	adds	r3, r3, r1
 8002496:	8819      	ldrh	r1, [r3, #0]
 8002498:	0589      	lsls	r1, r1, #22
 800249a:	0d89      	lsrs	r1, r1, #22
 800249c:	8019      	strh	r1, [r3, #0]
 800249e:	2a3e      	cmp	r2, #62	; 0x3e
 80024a0:	d918      	bls.n	80024d4 <USB_EPStartXfer+0x2ac>
 80024a2:	201f      	movs	r0, #31
 80024a4:	0951      	lsrs	r1, r2, #5
 80024a6:	4002      	ands	r2, r0
 80024a8:	4250      	negs	r0, r2
 80024aa:	4142      	adcs	r2, r0
 80024ac:	1a89      	subs	r1, r1, r2
 80024ae:	881a      	ldrh	r2, [r3, #0]
 80024b0:	0289      	lsls	r1, r1, #10
 80024b2:	4311      	orrs	r1, r2
 80024b4:	4a26      	ldr	r2, [pc, #152]	; (8002550 <USB_EPStartXfer+0x328>)
 80024b6:	430a      	orrs	r2, r1
 80024b8:	b292      	uxth	r2, r2
 80024ba:	801a      	strh	r2, [r3, #0]
 80024bc:	7823      	ldrb	r3, [r4, #0]
 80024be:	4a26      	ldr	r2, [pc, #152]	; (8002558 <USB_EPStartXfer+0x330>)
 80024c0:	009b      	lsls	r3, r3, #2
 80024c2:	18eb      	adds	r3, r5, r3
 80024c4:	8819      	ldrh	r1, [r3, #0]
 80024c6:	4011      	ands	r1, r2
 80024c8:	22c0      	movs	r2, #192	; 0xc0
 80024ca:	0192      	lsls	r2, r2, #6
 80024cc:	404a      	eors	r2, r1
 80024ce:	4923      	ldr	r1, [pc, #140]	; (800255c <USB_EPStartXfer+0x334>)
 80024d0:	430a      	orrs	r2, r1
 80024d2:	e6d8      	b.n	8002286 <USB_EPStartXfer+0x5e>
 80024d4:	2a00      	cmp	r2, #0
 80024d6:	d104      	bne.n	80024e2 <USB_EPStartXfer+0x2ba>
 80024d8:	2180      	movs	r1, #128	; 0x80
 80024da:	881a      	ldrh	r2, [r3, #0]
 80024dc:	0209      	lsls	r1, r1, #8
 80024de:	430a      	orrs	r2, r1
 80024e0:	e7eb      	b.n	80024ba <USB_EPStartXfer+0x292>
 80024e2:	2001      	movs	r0, #1
 80024e4:	0851      	lsrs	r1, r2, #1
 80024e6:	4002      	ands	r2, r0
 80024e8:	1889      	adds	r1, r1, r2
 80024ea:	0289      	lsls	r1, r1, #10
 80024ec:	881a      	ldrh	r2, [r3, #0]
 80024ee:	e7e2      	b.n	80024b6 <USB_EPStartXfer+0x28e>
 80024f0:	78cb      	ldrb	r3, [r1, #3]
 80024f2:	2b02      	cmp	r3, #2
 80024f4:	d000      	beq.n	80024f8 <USB_EPStartXfer+0x2d0>
 80024f6:	e07c      	b.n	80025f2 <USB_EPStartXfer+0x3ca>
 80024f8:	2a00      	cmp	r2, #0
 80024fa:	d14c      	bne.n	8002596 <USB_EPStartXfer+0x36e>
 80024fc:	0006      	movs	r6, r0
 80024fe:	4b0e      	ldr	r3, [pc, #56]	; (8002538 <USB_EPStartXfer+0x310>)
 8002500:	3650      	adds	r6, #80	; 0x50
 8002502:	8831      	ldrh	r1, [r6, #0]
 8002504:	7822      	ldrb	r2, [r4, #0]
 8002506:	18c3      	adds	r3, r0, r3
 8002508:	185b      	adds	r3, r3, r1
 800250a:	00d2      	lsls	r2, r2, #3
 800250c:	18d2      	adds	r2, r2, r3
 800250e:	8813      	ldrh	r3, [r2, #0]
 8002510:	059b      	lsls	r3, r3, #22
 8002512:	0d9b      	lsrs	r3, r3, #22
 8002514:	8013      	strh	r3, [r2, #0]
 8002516:	6923      	ldr	r3, [r4, #16]
 8002518:	2b3e      	cmp	r3, #62	; 0x3e
 800251a:	d921      	bls.n	8002560 <USB_EPStartXfer+0x338>
 800251c:	201f      	movs	r0, #31
 800251e:	4018      	ands	r0, r3
 8002520:	4247      	negs	r7, r0
 8002522:	4178      	adcs	r0, r7
 8002524:	0959      	lsrs	r1, r3, #5
 8002526:	1a09      	subs	r1, r1, r0
 8002528:	8810      	ldrh	r0, [r2, #0]
 800252a:	0289      	lsls	r1, r1, #10
 800252c:	4308      	orrs	r0, r1
 800252e:	4908      	ldr	r1, [pc, #32]	; (8002550 <USB_EPStartXfer+0x328>)
 8002530:	4301      	orrs	r1, r0
 8002532:	b289      	uxth	r1, r1
 8002534:	e01a      	b.n	800256c <USB_EPStartXfer+0x344>
 8002536:	46c0      	nop			; (mov r8, r8)
 8002538:	00000402 	.word	0x00000402
 800253c:	ffff8fbf 	.word	0xffff8fbf
 8002540:	ffff8080 	.word	0xffff8080
 8002544:	ffff8f8f 	.word	0xffff8f8f
 8002548:	00008180 	.word	0x00008180
 800254c:	00000406 	.word	0x00000406
 8002550:	ffff8000 	.word	0xffff8000
 8002554:	ffff8e8f 	.word	0xffff8e8f
 8002558:	ffffbf8f 	.word	0xffffbf8f
 800255c:	00008080 	.word	0x00008080
 8002560:	2b00      	cmp	r3, #0
 8002562:	d12b      	bne.n	80025bc <USB_EPStartXfer+0x394>
 8002564:	2080      	movs	r0, #128	; 0x80
 8002566:	8811      	ldrh	r1, [r2, #0]
 8002568:	0200      	lsls	r0, r0, #8
 800256a:	4301      	orrs	r1, r0
 800256c:	8011      	strh	r1, [r2, #0]
 800256e:	4952      	ldr	r1, [pc, #328]	; (80026b8 <USB_EPStartXfer+0x490>)
 8002570:	8830      	ldrh	r0, [r6, #0]
 8002572:	7822      	ldrb	r2, [r4, #0]
 8002574:	1869      	adds	r1, r5, r1
 8002576:	1809      	adds	r1, r1, r0
 8002578:	00d2      	lsls	r2, r2, #3
 800257a:	1852      	adds	r2, r2, r1
 800257c:	8811      	ldrh	r1, [r2, #0]
 800257e:	0589      	lsls	r1, r1, #22
 8002580:	0d89      	lsrs	r1, r1, #22
 8002582:	8011      	strh	r1, [r2, #0]
 8002584:	2b3e      	cmp	r3, #62	; 0x3e
 8002586:	d820      	bhi.n	80025ca <USB_EPStartXfer+0x3a2>
 8002588:	2b00      	cmp	r3, #0
 800258a:	d12b      	bne.n	80025e4 <USB_EPStartXfer+0x3bc>
 800258c:	2180      	movs	r1, #128	; 0x80
 800258e:	8813      	ldrh	r3, [r2, #0]
 8002590:	0209      	lsls	r1, r1, #8
 8002592:	430b      	orrs	r3, r1
 8002594:	8013      	strh	r3, [r2, #0]
 8002596:	69e3      	ldr	r3, [r4, #28]
 8002598:	2b00      	cmp	r3, #0
 800259a:	d08f      	beq.n	80024bc <USB_EPStartXfer+0x294>
 800259c:	7823      	ldrb	r3, [r4, #0]
 800259e:	4947      	ldr	r1, [pc, #284]	; (80026bc <USB_EPStartXfer+0x494>)
 80025a0:	009b      	lsls	r3, r3, #2
 80025a2:	18eb      	adds	r3, r5, r3
 80025a4:	881a      	ldrh	r2, [r3, #0]
 80025a6:	400a      	ands	r2, r1
 80025a8:	428a      	cmp	r2, r1
 80025aa:	d002      	beq.n	80025b2 <USB_EPStartXfer+0x38a>
 80025ac:	2a00      	cmp	r2, #0
 80025ae:	d000      	beq.n	80025b2 <USB_EPStartXfer+0x38a>
 80025b0:	e784      	b.n	80024bc <USB_EPStartXfer+0x294>
 80025b2:	4943      	ldr	r1, [pc, #268]	; (80026c0 <USB_EPStartXfer+0x498>)
 80025b4:	881a      	ldrh	r2, [r3, #0]
 80025b6:	400a      	ands	r2, r1
 80025b8:	4942      	ldr	r1, [pc, #264]	; (80026c4 <USB_EPStartXfer+0x49c>)
 80025ba:	e790      	b.n	80024de <USB_EPStartXfer+0x2b6>
 80025bc:	2101      	movs	r1, #1
 80025be:	0858      	lsrs	r0, r3, #1
 80025c0:	4019      	ands	r1, r3
 80025c2:	1840      	adds	r0, r0, r1
 80025c4:	0280      	lsls	r0, r0, #10
 80025c6:	8811      	ldrh	r1, [r2, #0]
 80025c8:	e7b2      	b.n	8002530 <USB_EPStartXfer+0x308>
 80025ca:	201f      	movs	r0, #31
 80025cc:	0959      	lsrs	r1, r3, #5
 80025ce:	4003      	ands	r3, r0
 80025d0:	4258      	negs	r0, r3
 80025d2:	4143      	adcs	r3, r0
 80025d4:	1ac9      	subs	r1, r1, r3
 80025d6:	8813      	ldrh	r3, [r2, #0]
 80025d8:	0289      	lsls	r1, r1, #10
 80025da:	4319      	orrs	r1, r3
 80025dc:	4b3a      	ldr	r3, [pc, #232]	; (80026c8 <USB_EPStartXfer+0x4a0>)
 80025de:	430b      	orrs	r3, r1
 80025e0:	b29b      	uxth	r3, r3
 80025e2:	e7d7      	b.n	8002594 <USB_EPStartXfer+0x36c>
 80025e4:	2001      	movs	r0, #1
 80025e6:	0859      	lsrs	r1, r3, #1
 80025e8:	4003      	ands	r3, r0
 80025ea:	18c9      	adds	r1, r1, r3
 80025ec:	0289      	lsls	r1, r1, #10
 80025ee:	8813      	ldrh	r3, [r2, #0]
 80025f0:	e7f5      	b.n	80025de <USB_EPStartXfer+0x3b6>
 80025f2:	2001      	movs	r0, #1
 80025f4:	4283      	cmp	r3, r0
 80025f6:	d000      	beq.n	80025fa <USB_EPStartXfer+0x3d2>
 80025f8:	e647      	b.n	800228a <USB_EPStartXfer+0x62>
 80025fa:	698b      	ldr	r3, [r1, #24]
 80025fc:	6909      	ldr	r1, [r1, #16]
 80025fe:	2000      	movs	r0, #0
 8002600:	428b      	cmp	r3, r1
 8002602:	d901      	bls.n	8002608 <USB_EPStartXfer+0x3e0>
 8002604:	1a58      	subs	r0, r3, r1
 8002606:	000b      	movs	r3, r1
 8002608:	61a0      	str	r0, [r4, #24]
 800260a:	2a00      	cmp	r2, #0
 800260c:	d000      	beq.n	8002610 <USB_EPStartXfer+0x3e8>
 800260e:	e755      	b.n	80024bc <USB_EPStartXfer+0x294>
 8002610:	002e      	movs	r6, r5
 8002612:	492e      	ldr	r1, [pc, #184]	; (80026cc <USB_EPStartXfer+0x4a4>)
 8002614:	3650      	adds	r6, #80	; 0x50
 8002616:	8830      	ldrh	r0, [r6, #0]
 8002618:	7822      	ldrb	r2, [r4, #0]
 800261a:	1869      	adds	r1, r5, r1
 800261c:	1809      	adds	r1, r1, r0
 800261e:	00d2      	lsls	r2, r2, #3
 8002620:	1852      	adds	r2, r2, r1
 8002622:	8811      	ldrh	r1, [r2, #0]
 8002624:	0589      	lsls	r1, r1, #22
 8002626:	0d89      	lsrs	r1, r1, #22
 8002628:	8011      	strh	r1, [r2, #0]
 800262a:	2b3e      	cmp	r3, #62	; 0x3e
 800262c:	d90c      	bls.n	8002648 <USB_EPStartXfer+0x420>
 800262e:	201f      	movs	r0, #31
 8002630:	4018      	ands	r0, r3
 8002632:	4247      	negs	r7, r0
 8002634:	4178      	adcs	r0, r7
 8002636:	0959      	lsrs	r1, r3, #5
 8002638:	1a09      	subs	r1, r1, r0
 800263a:	8810      	ldrh	r0, [r2, #0]
 800263c:	0289      	lsls	r1, r1, #10
 800263e:	4308      	orrs	r0, r1
 8002640:	4921      	ldr	r1, [pc, #132]	; (80026c8 <USB_EPStartXfer+0x4a0>)
 8002642:	4301      	orrs	r1, r0
 8002644:	b289      	uxth	r1, r1
 8002646:	e005      	b.n	8002654 <USB_EPStartXfer+0x42c>
 8002648:	2b00      	cmp	r3, #0
 800264a:	d119      	bne.n	8002680 <USB_EPStartXfer+0x458>
 800264c:	2080      	movs	r0, #128	; 0x80
 800264e:	8811      	ldrh	r1, [r2, #0]
 8002650:	0200      	lsls	r0, r0, #8
 8002652:	4301      	orrs	r1, r0
 8002654:	8011      	strh	r1, [r2, #0]
 8002656:	4918      	ldr	r1, [pc, #96]	; (80026b8 <USB_EPStartXfer+0x490>)
 8002658:	8830      	ldrh	r0, [r6, #0]
 800265a:	7822      	ldrb	r2, [r4, #0]
 800265c:	1869      	adds	r1, r5, r1
 800265e:	1809      	adds	r1, r1, r0
 8002660:	00d2      	lsls	r2, r2, #3
 8002662:	1852      	adds	r2, r2, r1
 8002664:	8811      	ldrh	r1, [r2, #0]
 8002666:	0589      	lsls	r1, r1, #22
 8002668:	0d89      	lsrs	r1, r1, #22
 800266a:	8011      	strh	r1, [r2, #0]
 800266c:	2b3e      	cmp	r3, #62	; 0x3e
 800266e:	d80e      	bhi.n	800268e <USB_EPStartXfer+0x466>
 8002670:	2b00      	cmp	r3, #0
 8002672:	d119      	bne.n	80026a8 <USB_EPStartXfer+0x480>
 8002674:	2180      	movs	r1, #128	; 0x80
 8002676:	8813      	ldrh	r3, [r2, #0]
 8002678:	0209      	lsls	r1, r1, #8
 800267a:	430b      	orrs	r3, r1
 800267c:	8013      	strh	r3, [r2, #0]
 800267e:	e71d      	b.n	80024bc <USB_EPStartXfer+0x294>
 8002680:	2101      	movs	r1, #1
 8002682:	0858      	lsrs	r0, r3, #1
 8002684:	4019      	ands	r1, r3
 8002686:	1840      	adds	r0, r0, r1
 8002688:	0280      	lsls	r0, r0, #10
 800268a:	8811      	ldrh	r1, [r2, #0]
 800268c:	e7d9      	b.n	8002642 <USB_EPStartXfer+0x41a>
 800268e:	201f      	movs	r0, #31
 8002690:	0959      	lsrs	r1, r3, #5
 8002692:	4003      	ands	r3, r0
 8002694:	4258      	negs	r0, r3
 8002696:	4143      	adcs	r3, r0
 8002698:	1ac9      	subs	r1, r1, r3
 800269a:	8813      	ldrh	r3, [r2, #0]
 800269c:	0289      	lsls	r1, r1, #10
 800269e:	4319      	orrs	r1, r3
 80026a0:	4b09      	ldr	r3, [pc, #36]	; (80026c8 <USB_EPStartXfer+0x4a0>)
 80026a2:	430b      	orrs	r3, r1
 80026a4:	b29b      	uxth	r3, r3
 80026a6:	e7e9      	b.n	800267c <USB_EPStartXfer+0x454>
 80026a8:	2001      	movs	r0, #1
 80026aa:	0859      	lsrs	r1, r3, #1
 80026ac:	4003      	ands	r3, r0
 80026ae:	18c9      	adds	r1, r1, r3
 80026b0:	0289      	lsls	r1, r1, #10
 80026b2:	8813      	ldrh	r3, [r2, #0]
 80026b4:	e7f5      	b.n	80026a2 <USB_EPStartXfer+0x47a>
 80026b6:	46c0      	nop			; (mov r8, r8)
 80026b8:	00000406 	.word	0x00000406
 80026bc:	00004040 	.word	0x00004040
 80026c0:	ffff8f8f 	.word	0xffff8f8f
 80026c4:	000080c0 	.word	0x000080c0
 80026c8:	ffff8000 	.word	0xffff8000
 80026cc:	00000402 	.word	0x00000402

080026d0 <USB_ReadPMA>:
 80026d0:	b5f0      	push	{r4, r5, r6, r7, lr}
 80026d2:	2580      	movs	r5, #128	; 0x80
 80026d4:	085c      	lsrs	r4, r3, #1
 80026d6:	00ed      	lsls	r5, r5, #3
 80026d8:	1952      	adds	r2, r2, r5
 80026da:	0026      	movs	r6, r4
 80026dc:	000d      	movs	r5, r1
 80026de:	1880      	adds	r0, r0, r2
 80026e0:	1a47      	subs	r7, r0, r1
 80026e2:	197a      	adds	r2, r7, r5
 80026e4:	2e00      	cmp	r6, #0
 80026e6:	d107      	bne.n	80026f8 <USB_ReadPMA+0x28>
 80026e8:	0064      	lsls	r4, r4, #1
 80026ea:	1900      	adds	r0, r0, r4
 80026ec:	1909      	adds	r1, r1, r4
 80026ee:	07db      	lsls	r3, r3, #31
 80026f0:	d501      	bpl.n	80026f6 <USB_ReadPMA+0x26>
 80026f2:	8803      	ldrh	r3, [r0, #0]
 80026f4:	700b      	strb	r3, [r1, #0]
 80026f6:	bdf0      	pop	{r4, r5, r6, r7, pc}
 80026f8:	8812      	ldrh	r2, [r2, #0]
 80026fa:	3e01      	subs	r6, #1
 80026fc:	b292      	uxth	r2, r2
 80026fe:	702a      	strb	r2, [r5, #0]
 8002700:	0a12      	lsrs	r2, r2, #8
 8002702:	706a      	strb	r2, [r5, #1]
 8002704:	3502      	adds	r5, #2
 8002706:	e7ec      	b.n	80026e2 <USB_ReadPMA+0x12>

08002708 <USBD_CDC_EP0_RxReady>:
 8002708:	23af      	movs	r3, #175	; 0xaf
 800270a:	009b      	lsls	r3, r3, #2
 800270c:	58c3      	ldr	r3, [r0, r3]
 800270e:	b570      	push	{r4, r5, r6, lr}
 8002710:	2b00      	cmp	r3, #0
 8002712:	d00e      	beq.n	8002732 <USBD_CDC_EP0_RxReady+0x2a>
 8002714:	22ae      	movs	r2, #174	; 0xae
 8002716:	2580      	movs	r5, #128	; 0x80
 8002718:	0092      	lsls	r2, r2, #2
 800271a:	5884      	ldr	r4, [r0, r2]
 800271c:	00ad      	lsls	r5, r5, #2
 800271e:	5d60      	ldrb	r0, [r4, r5]
 8002720:	28ff      	cmp	r0, #255	; 0xff
 8002722:	d006      	beq.n	8002732 <USBD_CDC_EP0_RxReady+0x2a>
 8002724:	4a04      	ldr	r2, [pc, #16]	; (8002738 <USBD_CDC_EP0_RxReady+0x30>)
 8002726:	689b      	ldr	r3, [r3, #8]
 8002728:	0021      	movs	r1, r4
 800272a:	5ca2      	ldrb	r2, [r4, r2]
 800272c:	4798      	blx	r3
 800272e:	23ff      	movs	r3, #255	; 0xff
 8002730:	5563      	strb	r3, [r4, r5]
 8002732:	2000      	movs	r0, #0
 8002734:	bd70      	pop	{r4, r5, r6, pc}
 8002736:	46c0      	nop			; (mov r8, r8)
 8002738:	00000201 	.word	0x00000201

0800273c <USBD_CDC_GetFSCfgDesc>:
 800273c:	2343      	movs	r3, #67	; 0x43
 800273e:	8003      	strh	r3, [r0, #0]
 8002740:	4800      	ldr	r0, [pc, #0]	; (8002744 <USBD_CDC_GetFSCfgDesc+0x8>)
 8002742:	4770      	bx	lr
 8002744:	20000044 	.word	0x20000044

08002748 <USBD_CDC_GetHSCfgDesc>:
 8002748:	2343      	movs	r3, #67	; 0x43
 800274a:	8003      	strh	r3, [r0, #0]
 800274c:	4800      	ldr	r0, [pc, #0]	; (8002750 <USBD_CDC_GetHSCfgDesc+0x8>)
 800274e:	4770      	bx	lr
 8002750:	20000088 	.word	0x20000088

08002754 <USBD_CDC_GetOtherSpeedCfgDesc>:
 8002754:	2343      	movs	r3, #67	; 0x43
 8002756:	8003      	strh	r3, [r0, #0]
 8002758:	4800      	ldr	r0, [pc, #0]	; (800275c <USBD_CDC_GetOtherSpeedCfgDesc+0x8>)
 800275a:	4770      	bx	lr
 800275c:	200000d8 	.word	0x200000d8

08002760 <USBD_CDC_GetDeviceQualifierDescriptor>:
 8002760:	230a      	movs	r3, #10
 8002762:	8003      	strh	r3, [r0, #0]
 8002764:	4800      	ldr	r0, [pc, #0]	; (8002768 <USBD_CDC_GetDeviceQualifierDescriptor+0x8>)
 8002766:	4770      	bx	lr
 8002768:	200000cc 	.word	0x200000cc

0800276c <USBD_CDC_DataOut>:
 800276c:	b570      	push	{r4, r5, r6, lr}
 800276e:	26ae      	movs	r6, #174	; 0xae
 8002770:	00b6      	lsls	r6, r6, #2
 8002772:	0004      	movs	r4, r0
 8002774:	5985      	ldr	r5, [r0, r6]
 8002776:	f000 ff55 	bl	8003624 <USBD_LL_GetRxDataSize>
 800277a:	2383      	movs	r3, #131	; 0x83
 800277c:	009b      	lsls	r3, r3, #2
 800277e:	50e8      	str	r0, [r5, r3]
 8002780:	59a3      	ldr	r3, [r4, r6]
 8002782:	2002      	movs	r0, #2
 8002784:	2b00      	cmp	r3, #0
 8002786:	d00a      	beq.n	800279e <USBD_CDC_DataOut+0x32>
 8002788:	2383      	movs	r3, #131	; 0x83
 800278a:	2281      	movs	r2, #129	; 0x81
 800278c:	009b      	lsls	r3, r3, #2
 800278e:	18e9      	adds	r1, r5, r3
 8002790:	33b0      	adds	r3, #176	; 0xb0
 8002792:	58e3      	ldr	r3, [r4, r3]
 8002794:	0092      	lsls	r2, r2, #2
 8002796:	68db      	ldr	r3, [r3, #12]
 8002798:	58a8      	ldr	r0, [r5, r2]
 800279a:	4798      	blx	r3
 800279c:	2000      	movs	r0, #0
 800279e:	bd70      	pop	{r4, r5, r6, pc}

080027a0 <USBD_CDC_DataIn>:
 80027a0:	23ae      	movs	r3, #174	; 0xae
 80027a2:	b5f7      	push	{r0, r1, r2, r4, r5, r6, r7, lr}
 80027a4:	009b      	lsls	r3, r3, #2
 80027a6:	58c3      	ldr	r3, [r0, r3]
 80027a8:	0005      	movs	r5, r0
 80027aa:	000f      	movs	r7, r1
 80027ac:	2002      	movs	r0, #2
 80027ae:	9301      	str	r3, [sp, #4]
 80027b0:	2b00      	cmp	r3, #0
 80027b2:	d018      	beq.n	80027e6 <USBD_CDC_DataIn+0x46>
 80027b4:	2614      	movs	r6, #20
 80027b6:	23b0      	movs	r3, #176	; 0xb0
 80027b8:	434e      	muls	r6, r1
 80027ba:	19ae      	adds	r6, r5, r6
 80027bc:	69f0      	ldr	r0, [r6, #28]
 80027be:	009b      	lsls	r3, r3, #2
 80027c0:	58eb      	ldr	r3, [r5, r3]
 80027c2:	2800      	cmp	r0, #0
 80027c4:	d010      	beq.n	80027e8 <USBD_CDC_DataIn+0x48>
 80027c6:	2228      	movs	r2, #40	; 0x28
 80027c8:	434a      	muls	r2, r1
 80027ca:	189b      	adds	r3, r3, r2
 80027cc:	6b99      	ldr	r1, [r3, #56]	; 0x38
 80027ce:	f7fd fd35 	bl	800023c <__aeabi_uidivmod>
 80027d2:	1e0c      	subs	r4, r1, #0
 80027d4:	d108      	bne.n	80027e8 <USBD_CDC_DataIn+0x48>
 80027d6:	000b      	movs	r3, r1
 80027d8:	000a      	movs	r2, r1
 80027da:	61f1      	str	r1, [r6, #28]
 80027dc:	0028      	movs	r0, r5
 80027de:	0039      	movs	r1, r7
 80027e0:	f000 ff0e 	bl	8003600 <USBD_LL_Transmit>
 80027e4:	0020      	movs	r0, r4
 80027e6:	bdfe      	pop	{r1, r2, r3, r4, r5, r6, r7, pc}
 80027e8:	2385      	movs	r3, #133	; 0x85
 80027ea:	2000      	movs	r0, #0
 80027ec:	9a01      	ldr	r2, [sp, #4]
 80027ee:	009b      	lsls	r3, r3, #2
 80027f0:	50d0      	str	r0, [r2, r3]
 80027f2:	e7f8      	b.n	80027e6 <USBD_CDC_DataIn+0x46>

080027f4 <USBD_CDC_Setup>:
 80027f4:	23ae      	movs	r3, #174	; 0xae
 80027f6:	b5f7      	push	{r0, r1, r2, r4, r5, r6, r7, lr}
 80027f8:	009b      	lsls	r3, r3, #2
 80027fa:	58c7      	ldr	r7, [r0, r3]
 80027fc:	466b      	mov	r3, sp
 80027fe:	466a      	mov	r2, sp
 8002800:	000e      	movs	r6, r1
 8002802:	1d59      	adds	r1, r3, #5
 8002804:	2300      	movs	r3, #0
 8002806:	0005      	movs	r5, r0
 8002808:	700b      	strb	r3, [r1, #0]
 800280a:	80d3      	strh	r3, [r2, #6]
 800280c:	7833      	ldrb	r3, [r6, #0]
 800280e:	1d90      	adds	r0, r2, #6
 8002810:	001c      	movs	r4, r3
 8002812:	2260      	movs	r2, #96	; 0x60
 8002814:	4014      	ands	r4, r2
 8002816:	4213      	tst	r3, r2
 8002818:	d02a      	beq.n	8002870 <USBD_CDC_Setup+0x7c>
 800281a:	2c20      	cmp	r4, #32
 800281c:	d146      	bne.n	80028ac <USBD_CDC_Setup+0xb8>
 800281e:	88f4      	ldrh	r4, [r6, #6]
 8002820:	7870      	ldrb	r0, [r6, #1]
 8002822:	2c00      	cmp	r4, #0
 8002824:	d01c      	beq.n	8002860 <USBD_CDC_Setup+0x6c>
 8002826:	b25b      	sxtb	r3, r3
 8002828:	2b00      	cmp	r3, #0
 800282a:	da0e      	bge.n	800284a <USBD_CDC_Setup+0x56>
 800282c:	23af      	movs	r3, #175	; 0xaf
 800282e:	009b      	lsls	r3, r3, #2
 8002830:	58eb      	ldr	r3, [r5, r3]
 8002832:	0022      	movs	r2, r4
 8002834:	0039      	movs	r1, r7
 8002836:	689b      	ldr	r3, [r3, #8]
 8002838:	4798      	blx	r3
 800283a:	0039      	movs	r1, r7
 800283c:	0028      	movs	r0, r5
 800283e:	88f2      	ldrh	r2, [r6, #6]
 8002840:	f000 fca6 	bl	8003190 <USBD_CtlSendData>
 8002844:	2400      	movs	r4, #0
 8002846:	0020      	movs	r0, r4
 8002848:	bdfe      	pop	{r1, r2, r3, r4, r5, r6, r7, pc}
 800284a:	2380      	movs	r3, #128	; 0x80
 800284c:	009b      	lsls	r3, r3, #2
 800284e:	54f8      	strb	r0, [r7, r3]
 8002850:	4b19      	ldr	r3, [pc, #100]	; (80028b8 <USBD_CDC_Setup+0xc4>)
 8002852:	0022      	movs	r2, r4
 8002854:	0039      	movs	r1, r7
 8002856:	0028      	movs	r0, r5
 8002858:	54fc      	strb	r4, [r7, r3]
 800285a:	f000 fcaf 	bl	80031bc <USBD_CtlPrepareRx>
 800285e:	e7f1      	b.n	8002844 <USBD_CDC_Setup+0x50>
 8002860:	23af      	movs	r3, #175	; 0xaf
 8002862:	009b      	lsls	r3, r3, #2
 8002864:	58eb      	ldr	r3, [r5, r3]
 8002866:	0022      	movs	r2, r4
 8002868:	0031      	movs	r1, r6
 800286a:	689b      	ldr	r3, [r3, #8]
 800286c:	4798      	blx	r3
 800286e:	e7ea      	b.n	8002846 <USBD_CDC_Setup+0x52>
 8002870:	7873      	ldrb	r3, [r6, #1]
 8002872:	2b0a      	cmp	r3, #10
 8002874:	d00e      	beq.n	8002894 <USBD_CDC_Setup+0xa0>
 8002876:	2b0b      	cmp	r3, #11
 8002878:	d013      	beq.n	80028a2 <USBD_CDC_Setup+0xae>
 800287a:	2b00      	cmp	r3, #0
 800287c:	d116      	bne.n	80028ac <USBD_CDC_Setup+0xb8>
 800287e:	23a7      	movs	r3, #167	; 0xa7
 8002880:	009b      	lsls	r3, r3, #2
 8002882:	5ceb      	ldrb	r3, [r5, r3]
 8002884:	2b03      	cmp	r3, #3
 8002886:	d111      	bne.n	80028ac <USBD_CDC_Setup+0xb8>
 8002888:	2202      	movs	r2, #2
 800288a:	0001      	movs	r1, r0
 800288c:	0028      	movs	r0, r5
 800288e:	f000 fc7f 	bl	8003190 <USBD_CtlSendData>
 8002892:	e7d8      	b.n	8002846 <USBD_CDC_Setup+0x52>
 8002894:	23a7      	movs	r3, #167	; 0xa7
 8002896:	009b      	lsls	r3, r3, #2
 8002898:	5ceb      	ldrb	r3, [r5, r3]
 800289a:	2b03      	cmp	r3, #3
 800289c:	d106      	bne.n	80028ac <USBD_CDC_Setup+0xb8>
 800289e:	2201      	movs	r2, #1
 80028a0:	e7f4      	b.n	800288c <USBD_CDC_Setup+0x98>
 80028a2:	23a7      	movs	r3, #167	; 0xa7
 80028a4:	009b      	lsls	r3, r3, #2
 80028a6:	5ceb      	ldrb	r3, [r5, r3]
 80028a8:	2b03      	cmp	r3, #3
 80028aa:	d0cc      	beq.n	8002846 <USBD_CDC_Setup+0x52>
 80028ac:	0031      	movs	r1, r6
 80028ae:	0028      	movs	r0, r5
 80028b0:	f000 fc46 	bl	8003140 <USBD_CtlError>
 80028b4:	2402      	movs	r4, #2
 80028b6:	e7c6      	b.n	8002846 <USBD_CDC_Setup+0x52>
 80028b8:	00000201 	.word	0x00000201

080028bc <USBD_CDC_DeInit>:
 80028bc:	b570      	push	{r4, r5, r6, lr}
 80028be:	0004      	movs	r4, r0
 80028c0:	2500      	movs	r5, #0
 80028c2:	2181      	movs	r1, #129	; 0x81
 80028c4:	f000 fe63 	bl	800358e <USBD_LL_CloseEP>
 80028c8:	2101      	movs	r1, #1
 80028ca:	0020      	movs	r0, r4
 80028cc:	62e5      	str	r5, [r4, #44]	; 0x2c
 80028ce:	f000 fe5e 	bl	800358e <USBD_LL_CloseEP>
 80028d2:	0023      	movs	r3, r4
 80028d4:	26ae      	movs	r6, #174	; 0xae
 80028d6:	33fc      	adds	r3, #252	; 0xfc
 80028d8:	671d      	str	r5, [r3, #112]	; 0x70
 80028da:	2182      	movs	r1, #130	; 0x82
 80028dc:	0020      	movs	r0, r4
 80028de:	00b6      	lsls	r6, r6, #2
 80028e0:	f000 fe55 	bl	800358e <USBD_LL_CloseEP>
 80028e4:	59a3      	ldr	r3, [r4, r6]
 80028e6:	6425      	str	r5, [r4, #64]	; 0x40
 80028e8:	42ab      	cmp	r3, r5
 80028ea:	d008      	beq.n	80028fe <USBD_CDC_DeInit+0x42>
 80028ec:	23af      	movs	r3, #175	; 0xaf
 80028ee:	009b      	lsls	r3, r3, #2
 80028f0:	58e3      	ldr	r3, [r4, r3]
 80028f2:	685b      	ldr	r3, [r3, #4]
 80028f4:	4798      	blx	r3
 80028f6:	59a0      	ldr	r0, [r4, r6]
 80028f8:	f000 fea0 	bl	800363c <USBD_static_free>
 80028fc:	51a5      	str	r5, [r4, r6]
 80028fe:	2000      	movs	r0, #0
 8002900:	bd70      	pop	{r4, r5, r6, pc}

08002902 <USBD_CDC_Init>:
 8002902:	b5f8      	push	{r3, r4, r5, r6, r7, lr}
 8002904:	7c03      	ldrb	r3, [r0, #16]
 8002906:	0004      	movs	r4, r0
 8002908:	2b00      	cmp	r3, #0
 800290a:	d13a      	bne.n	8002982 <USBD_CDC_Init+0x80>
 800290c:	2380      	movs	r3, #128	; 0x80
 800290e:	2181      	movs	r1, #129	; 0x81
 8002910:	009b      	lsls	r3, r3, #2
 8002912:	2202      	movs	r2, #2
 8002914:	f000 fe2f 	bl	8003576 <USBD_LL_OpenEP>
 8002918:	2101      	movs	r1, #1
 800291a:	2380      	movs	r3, #128	; 0x80
 800291c:	62e1      	str	r1, [r4, #44]	; 0x2c
 800291e:	009b      	lsls	r3, r3, #2
 8002920:	2202      	movs	r2, #2
 8002922:	0020      	movs	r0, r4
 8002924:	f000 fe27 	bl	8003576 <USBD_LL_OpenEP>
 8002928:	0023      	movs	r3, r4
 800292a:	2601      	movs	r6, #1
 800292c:	33fc      	adds	r3, #252	; 0xfc
 800292e:	2203      	movs	r2, #3
 8002930:	2182      	movs	r1, #130	; 0x82
 8002932:	671e      	str	r6, [r3, #112]	; 0x70
 8002934:	0020      	movs	r0, r4
 8002936:	2308      	movs	r3, #8
 8002938:	f000 fe1d 	bl	8003576 <USBD_LL_OpenEP>
 800293c:	2087      	movs	r0, #135	; 0x87
 800293e:	6426      	str	r6, [r4, #64]	; 0x40
 8002940:	0080      	lsls	r0, r0, #2
 8002942:	f000 fe77 	bl	8003634 <USBD_static_malloc>
 8002946:	23ae      	movs	r3, #174	; 0xae
 8002948:	009b      	lsls	r3, r3, #2
 800294a:	0005      	movs	r5, r0
 800294c:	0037      	movs	r7, r6
 800294e:	50e0      	str	r0, [r4, r3]
 8002950:	2800      	cmp	r0, #0
 8002952:	d014      	beq.n	800297e <USBD_CDC_Init+0x7c>
 8002954:	3304      	adds	r3, #4
 8002956:	58e3      	ldr	r3, [r4, r3]
 8002958:	681b      	ldr	r3, [r3, #0]
 800295a:	4798      	blx	r3
 800295c:	2385      	movs	r3, #133	; 0x85
 800295e:	2200      	movs	r2, #0
 8002960:	009b      	lsls	r3, r3, #2
 8002962:	50ea      	str	r2, [r5, r3]
 8002964:	3304      	adds	r3, #4
 8002966:	50ea      	str	r2, [r5, r3]
 8002968:	2281      	movs	r2, #129	; 0x81
 800296a:	7c27      	ldrb	r7, [r4, #16]
 800296c:	0092      	lsls	r2, r2, #2
 800296e:	2f00      	cmp	r7, #0
 8002970:	d110      	bne.n	8002994 <USBD_CDC_Init+0x92>
 8002972:	0031      	movs	r1, r6
 8002974:	0020      	movs	r0, r4
 8002976:	58aa      	ldr	r2, [r5, r2]
 8002978:	3b18      	subs	r3, #24
 800297a:	f000 fe4a 	bl	8003612 <USBD_LL_PrepareReceive>
 800297e:	0038      	movs	r0, r7
 8002980:	bdf8      	pop	{r3, r4, r5, r6, r7, pc}
 8002982:	2340      	movs	r3, #64	; 0x40
 8002984:	2181      	movs	r1, #129	; 0x81
 8002986:	2202      	movs	r2, #2
 8002988:	f000 fdf5 	bl	8003576 <USBD_LL_OpenEP>
 800298c:	2101      	movs	r1, #1
 800298e:	2340      	movs	r3, #64	; 0x40
 8002990:	62e1      	str	r1, [r4, #44]	; 0x2c
 8002992:	e7c5      	b.n	8002920 <USBD_CDC_Init+0x1e>
 8002994:	2340      	movs	r3, #64	; 0x40
 8002996:	0031      	movs	r1, r6
 8002998:	0020      	movs	r0, r4
 800299a:	58aa      	ldr	r2, [r5, r2]
 800299c:	f000 fe39 	bl	8003612 <USBD_LL_PrepareReceive>
 80029a0:	2700      	movs	r7, #0
 80029a2:	e7ec      	b.n	800297e <USBD_CDC_Init+0x7c>

080029a4 <USBD_CDC_RegisterInterface>:
 80029a4:	0003      	movs	r3, r0
 80029a6:	2002      	movs	r0, #2
 80029a8:	2900      	cmp	r1, #0
 80029aa:	d003      	beq.n	80029b4 <USBD_CDC_RegisterInterface+0x10>
 80029ac:	22af      	movs	r2, #175	; 0xaf
 80029ae:	2000      	movs	r0, #0
 80029b0:	0092      	lsls	r2, r2, #2
 80029b2:	5099      	str	r1, [r3, r2]
 80029b4:	4770      	bx	lr

080029b6 <USBD_CDC_SetTxBuffer>:
 80029b6:	23ae      	movs	r3, #174	; 0xae
 80029b8:	009b      	lsls	r3, r3, #2
 80029ba:	58c3      	ldr	r3, [r0, r3]
 80029bc:	2082      	movs	r0, #130	; 0x82
 80029be:	0080      	lsls	r0, r0, #2
 80029c0:	5019      	str	r1, [r3, r0]
 80029c2:	2184      	movs	r1, #132	; 0x84
 80029c4:	0089      	lsls	r1, r1, #2
 80029c6:	2000      	movs	r0, #0
 80029c8:	505a      	str	r2, [r3, r1]
 80029ca:	4770      	bx	lr

080029cc <USBD_CDC_SetRxBuffer>:
 80029cc:	23ae      	movs	r3, #174	; 0xae
 80029ce:	009b      	lsls	r3, r3, #2
 80029d0:	58c2      	ldr	r2, [r0, r3]
 80029d2:	3bb4      	subs	r3, #180	; 0xb4
 80029d4:	2000      	movs	r0, #0
 80029d6:	50d1      	str	r1, [r2, r3]
 80029d8:	4770      	bx	lr

080029da <USBD_CDC_TransmitPacket>:
 80029da:	23ae      	movs	r3, #174	; 0xae
 80029dc:	009b      	lsls	r3, r3, #2
 80029de:	58c2      	ldr	r2, [r0, r3]
 80029e0:	b510      	push	{r4, lr}
 80029e2:	2302      	movs	r3, #2
 80029e4:	2a00      	cmp	r2, #0
 80029e6:	d012      	beq.n	8002a0e <USBD_CDC_TransmitPacket+0x34>
 80029e8:	2185      	movs	r1, #133	; 0x85
 80029ea:	0089      	lsls	r1, r1, #2
 80029ec:	5854      	ldr	r4, [r2, r1]
 80029ee:	3b01      	subs	r3, #1
 80029f0:	2c00      	cmp	r4, #0
 80029f2:	d10c      	bne.n	8002a0e <USBD_CDC_TransmitPacket+0x34>
 80029f4:	5053      	str	r3, [r2, r1]
 80029f6:	2384      	movs	r3, #132	; 0x84
 80029f8:	009b      	lsls	r3, r3, #2
 80029fa:	58d3      	ldr	r3, [r2, r3]
 80029fc:	390c      	subs	r1, #12
 80029fe:	5852      	ldr	r2, [r2, r1]
 8002a00:	3988      	subs	r1, #136	; 0x88
 8002a02:	6303      	str	r3, [r0, #48]	; 0x30
 8002a04:	39ff      	subs	r1, #255	; 0xff
 8002a06:	b29b      	uxth	r3, r3
 8002a08:	f000 fdfa 	bl	8003600 <USBD_LL_Transmit>
 8002a0c:	0023      	movs	r3, r4
 8002a0e:	0018      	movs	r0, r3
 8002a10:	bd10      	pop	{r4, pc}

08002a12 <USBD_CDC_ReceivePacket>:
 8002a12:	23ae      	movs	r3, #174	; 0xae
 8002a14:	009b      	lsls	r3, r3, #2
 8002a16:	58c3      	ldr	r3, [r0, r3]
 8002a18:	b510      	push	{r4, lr}
 8002a1a:	2402      	movs	r4, #2
 8002a1c:	2b00      	cmp	r3, #0
 8002a1e:	d00a      	beq.n	8002a36 <USBD_CDC_ReceivePacket+0x24>
 8002a20:	2281      	movs	r2, #129	; 0x81
 8002a22:	7c04      	ldrb	r4, [r0, #16]
 8002a24:	0092      	lsls	r2, r2, #2
 8002a26:	589a      	ldr	r2, [r3, r2]
 8002a28:	2c00      	cmp	r4, #0
 8002a2a:	d106      	bne.n	8002a3a <USBD_CDC_ReceivePacket+0x28>
 8002a2c:	2380      	movs	r3, #128	; 0x80
 8002a2e:	2101      	movs	r1, #1
 8002a30:	009b      	lsls	r3, r3, #2
 8002a32:	f000 fdee 	bl	8003612 <USBD_LL_PrepareReceive>
 8002a36:	0020      	movs	r0, r4
 8002a38:	bd10      	pop	{r4, pc}
 8002a3a:	2340      	movs	r3, #64	; 0x40
 8002a3c:	2101      	movs	r1, #1
 8002a3e:	f000 fde8 	bl	8003612 <USBD_LL_PrepareReceive>
 8002a42:	2400      	movs	r4, #0
 8002a44:	e7f7      	b.n	8002a36 <USBD_CDC_ReceivePacket+0x24>

08002a46 <USBD_Init>:
 8002a46:	2302      	movs	r3, #2
 8002a48:	b510      	push	{r4, lr}
 8002a4a:	2800      	cmp	r0, #0
 8002a4c:	d013      	beq.n	8002a76 <USBD_Init+0x30>
 8002a4e:	23ad      	movs	r3, #173	; 0xad
 8002a50:	009b      	lsls	r3, r3, #2
 8002a52:	58c4      	ldr	r4, [r0, r3]
 8002a54:	2c00      	cmp	r4, #0
 8002a56:	d001      	beq.n	8002a5c <USBD_Init+0x16>
 8002a58:	2400      	movs	r4, #0
 8002a5a:	50c4      	str	r4, [r0, r3]
 8002a5c:	2900      	cmp	r1, #0
 8002a5e:	d002      	beq.n	8002a66 <USBD_Init+0x20>
 8002a60:	23ac      	movs	r3, #172	; 0xac
 8002a62:	009b      	lsls	r3, r3, #2
 8002a64:	50c1      	str	r1, [r0, r3]
 8002a66:	23a7      	movs	r3, #167	; 0xa7
 8002a68:	2101      	movs	r1, #1
 8002a6a:	009b      	lsls	r3, r3, #2
 8002a6c:	54c1      	strb	r1, [r0, r3]
 8002a6e:	7002      	strb	r2, [r0, #0]
 8002a70:	f000 fd38 	bl	80034e4 <USBD_LL_Init>
 8002a74:	2300      	movs	r3, #0
 8002a76:	0018      	movs	r0, r3
 8002a78:	bd10      	pop	{r4, pc}

08002a7a <USBD_RegisterClass>:
 8002a7a:	0003      	movs	r3, r0
 8002a7c:	2002      	movs	r0, #2
 8002a7e:	2900      	cmp	r1, #0
 8002a80:	d003      	beq.n	8002a8a <USBD_RegisterClass+0x10>
 8002a82:	22ad      	movs	r2, #173	; 0xad
 8002a84:	2000      	movs	r0, #0
 8002a86:	0092      	lsls	r2, r2, #2
 8002a88:	5099      	str	r1, [r3, r2]
 8002a8a:	4770      	bx	lr

08002a8c <USBD_Start>:
 8002a8c:	b510      	push	{r4, lr}
 8002a8e:	f000 fd69 	bl	8003564 <USBD_LL_Start>
 8002a92:	2000      	movs	r0, #0
 8002a94:	bd10      	pop	{r4, pc}

08002a96 <USBD_SetClassConfig>:
 8002a96:	23ad      	movs	r3, #173	; 0xad
 8002a98:	009b      	lsls	r3, r3, #2
 8002a9a:	58c2      	ldr	r2, [r0, r3]
 8002a9c:	b510      	push	{r4, lr}
 8002a9e:	2302      	movs	r3, #2
 8002aa0:	2a00      	cmp	r2, #0
 8002aa2:	d004      	beq.n	8002aae <USBD_SetClassConfig+0x18>
 8002aa4:	6813      	ldr	r3, [r2, #0]
 8002aa6:	4798      	blx	r3
 8002aa8:	1e43      	subs	r3, r0, #1
 8002aaa:	4198      	sbcs	r0, r3
 8002aac:	0043      	lsls	r3, r0, #1
 8002aae:	0018      	movs	r0, r3
 8002ab0:	bd10      	pop	{r4, pc}

08002ab2 <USBD_ClrClassConfig>:
 8002ab2:	23ad      	movs	r3, #173	; 0xad
 8002ab4:	b510      	push	{r4, lr}
 8002ab6:	009b      	lsls	r3, r3, #2
 8002ab8:	58c3      	ldr	r3, [r0, r3]
 8002aba:	685b      	ldr	r3, [r3, #4]
 8002abc:	4798      	blx	r3
 8002abe:	2000      	movs	r0, #0
 8002ac0:	bd10      	pop	{r4, pc}
	...

08002ac4 <USBD_LL_SetupStage>:
 8002ac4:	23aa      	movs	r3, #170	; 0xaa
 8002ac6:	009b      	lsls	r3, r3, #2
 8002ac8:	b570      	push	{r4, r5, r6, lr}
 8002aca:	18c5      	adds	r5, r0, r3
 8002acc:	0004      	movs	r4, r0
 8002ace:	0028      	movs	r0, r5
 8002ad0:	f000 fb22 	bl	8003118 <USBD_ParseSetupRequest>
 8002ad4:	23a5      	movs	r3, #165	; 0xa5
 8002ad6:	2201      	movs	r2, #1
 8002ad8:	009b      	lsls	r3, r3, #2
 8002ada:	50e2      	str	r2, [r4, r3]
 8002adc:	4b11      	ldr	r3, [pc, #68]	; (8002b24 <USBD_LL_SetupStage+0x60>)
 8002ade:	5ae2      	ldrh	r2, [r4, r3]
 8002ae0:	3b16      	subs	r3, #22
 8002ae2:	50e2      	str	r2, [r4, r3]
 8002ae4:	3310      	adds	r3, #16
 8002ae6:	5ce1      	ldrb	r1, [r4, r3]
 8002ae8:	231f      	movs	r3, #31
 8002aea:	400b      	ands	r3, r1
 8002aec:	2b01      	cmp	r3, #1
 8002aee:	d009      	beq.n	8002b04 <USBD_LL_SetupStage+0x40>
 8002af0:	2b02      	cmp	r3, #2
 8002af2:	d00c      	beq.n	8002b0e <USBD_LL_SetupStage+0x4a>
 8002af4:	2b00      	cmp	r3, #0
 8002af6:	d10f      	bne.n	8002b18 <USBD_LL_SetupStage+0x54>
 8002af8:	0029      	movs	r1, r5
 8002afa:	0020      	movs	r0, r4
 8002afc:	f000 f91e 	bl	8002d3c <USBD_StdDevReq>
 8002b00:	2000      	movs	r0, #0
 8002b02:	bd70      	pop	{r4, r5, r6, pc}
 8002b04:	0029      	movs	r1, r5
 8002b06:	0020      	movs	r0, r4
 8002b08:	f000 fa4e 	bl	8002fa8 <USBD_StdItfReq>
 8002b0c:	e7f8      	b.n	8002b00 <USBD_LL_SetupStage+0x3c>
 8002b0e:	0029      	movs	r1, r5
 8002b10:	0020      	movs	r0, r4
 8002b12:	f000 fa71 	bl	8002ff8 <USBD_StdEPReq>
 8002b16:	e7f3      	b.n	8002b00 <USBD_LL_SetupStage+0x3c>
 8002b18:	237f      	movs	r3, #127	; 0x7f
 8002b1a:	0020      	movs	r0, r4
 8002b1c:	4399      	bics	r1, r3
 8002b1e:	f000 fd3f 	bl	80035a0 <USBD_LL_StallEP>
 8002b22:	e7ed      	b.n	8002b00 <USBD_LL_SetupStage+0x3c>
 8002b24:	000002ae 	.word	0x000002ae

08002b28 <USBD_LL_DataOutStage>:
 8002b28:	b570      	push	{r4, r5, r6, lr}
 8002b2a:	000d      	movs	r5, r1
 8002b2c:	0004      	movs	r4, r0
 8002b2e:	0011      	movs	r1, r2
 8002b30:	2d00      	cmp	r5, #0
 8002b32:	d12e      	bne.n	8002b92 <USBD_LL_DataOutStage+0x6a>
 8002b34:	23a5      	movs	r3, #165	; 0xa5
 8002b36:	009b      	lsls	r3, r3, #2
 8002b38:	58c2      	ldr	r2, [r0, r3]
 8002b3a:	2a03      	cmp	r2, #3
 8002b3c:	d122      	bne.n	8002b84 <USBD_LL_DataOutStage+0x5c>
 8002b3e:	0002      	movs	r2, r0
 8002b40:	3255      	adds	r2, #85	; 0x55
 8002b42:	32ff      	adds	r2, #255	; 0xff
 8002b44:	68d3      	ldr	r3, [r2, #12]
 8002b46:	6910      	ldr	r0, [r2, #16]
 8002b48:	4283      	cmp	r3, r0
 8002b4a:	d90a      	bls.n	8002b62 <USBD_LL_DataOutStage+0x3a>
 8002b4c:	1a1b      	subs	r3, r3, r0
 8002b4e:	60d3      	str	r3, [r2, #12]
 8002b50:	b282      	uxth	r2, r0
 8002b52:	4298      	cmp	r0, r3
 8002b54:	d900      	bls.n	8002b58 <USBD_LL_DataOutStage+0x30>
 8002b56:	b29a      	uxth	r2, r3
 8002b58:	0020      	movs	r0, r4
 8002b5a:	f000 fb3f 	bl	80031dc <USBD_CtlContinueRx>
 8002b5e:	0028      	movs	r0, r5
 8002b60:	bd70      	pop	{r4, r5, r6, pc}
 8002b62:	23ad      	movs	r3, #173	; 0xad
 8002b64:	009b      	lsls	r3, r3, #2
 8002b66:	58e3      	ldr	r3, [r4, r3]
 8002b68:	691b      	ldr	r3, [r3, #16]
 8002b6a:	2b00      	cmp	r3, #0
 8002b6c:	d006      	beq.n	8002b7c <USBD_LL_DataOutStage+0x54>
 8002b6e:	22a7      	movs	r2, #167	; 0xa7
 8002b70:	0092      	lsls	r2, r2, #2
 8002b72:	5ca2      	ldrb	r2, [r4, r2]
 8002b74:	2a03      	cmp	r2, #3
 8002b76:	d101      	bne.n	8002b7c <USBD_LL_DataOutStage+0x54>
 8002b78:	0020      	movs	r0, r4
 8002b7a:	4798      	blx	r3
 8002b7c:	0020      	movs	r0, r4
 8002b7e:	f000 fb35 	bl	80031ec <USBD_CtlSendStatus>
 8002b82:	e7ec      	b.n	8002b5e <USBD_LL_DataOutStage+0x36>
 8002b84:	2a05      	cmp	r2, #5
 8002b86:	d1ea      	bne.n	8002b5e <USBD_LL_DataOutStage+0x36>
 8002b88:	0029      	movs	r1, r5
 8002b8a:	50c5      	str	r5, [r0, r3]
 8002b8c:	f000 fd08 	bl	80035a0 <USBD_LL_StallEP>
 8002b90:	e7e5      	b.n	8002b5e <USBD_LL_DataOutStage+0x36>
 8002b92:	23ad      	movs	r3, #173	; 0xad
 8002b94:	009b      	lsls	r3, r3, #2
 8002b96:	58c3      	ldr	r3, [r0, r3]
 8002b98:	699b      	ldr	r3, [r3, #24]
 8002b9a:	2b00      	cmp	r3, #0
 8002b9c:	d008      	beq.n	8002bb0 <USBD_LL_DataOutStage+0x88>
 8002b9e:	22a7      	movs	r2, #167	; 0xa7
 8002ba0:	0092      	lsls	r2, r2, #2
 8002ba2:	5c82      	ldrb	r2, [r0, r2]
 8002ba4:	2a03      	cmp	r2, #3
 8002ba6:	d103      	bne.n	8002bb0 <USBD_LL_DataOutStage+0x88>
 8002ba8:	0029      	movs	r1, r5
 8002baa:	4798      	blx	r3
 8002bac:	2500      	movs	r5, #0
 8002bae:	e7d6      	b.n	8002b5e <USBD_LL_DataOutStage+0x36>
 8002bb0:	2502      	movs	r5, #2
 8002bb2:	e7d4      	b.n	8002b5e <USBD_LL_DataOutStage+0x36>

08002bb4 <USBD_LL_DataInStage>:
 8002bb4:	b5f8      	push	{r3, r4, r5, r6, r7, lr}
 8002bb6:	000d      	movs	r5, r1
 8002bb8:	0004      	movs	r4, r0
 8002bba:	0011      	movs	r1, r2
 8002bbc:	2d00      	cmp	r5, #0
 8002bbe:	d14d      	bne.n	8002c5c <USBD_LL_DataInStage+0xa8>
 8002bc0:	23a5      	movs	r3, #165	; 0xa5
 8002bc2:	009b      	lsls	r3, r3, #2
 8002bc4:	58c3      	ldr	r3, [r0, r3]
 8002bc6:	2b02      	cmp	r3, #2
 8002bc8:	d141      	bne.n	8002c4e <USBD_LL_DataInStage+0x9a>
 8002bca:	6a03      	ldr	r3, [r0, #32]
 8002bcc:	6a46      	ldr	r6, [r0, #36]	; 0x24
 8002bce:	42b3      	cmp	r3, r6
 8002bd0:	d913      	bls.n	8002bfa <USBD_LL_DataInStage+0x46>
 8002bd2:	1b9b      	subs	r3, r3, r6
 8002bd4:	6203      	str	r3, [r0, #32]
 8002bd6:	b29a      	uxth	r2, r3
 8002bd8:	f000 fae8 	bl	80031ac <USBD_CtlContinueSendData>
 8002bdc:	002b      	movs	r3, r5
 8002bde:	002a      	movs	r2, r5
 8002be0:	0029      	movs	r1, r5
 8002be2:	0020      	movs	r0, r4
 8002be4:	f000 fd15 	bl	8003612 <USBD_LL_PrepareReceive>
 8002be8:	23a8      	movs	r3, #168	; 0xa8
 8002bea:	009b      	lsls	r3, r3, #2
 8002bec:	5ce2      	ldrb	r2, [r4, r3]
 8002bee:	2a01      	cmp	r2, #1
 8002bf0:	d101      	bne.n	8002bf6 <USBD_LL_DataInStage+0x42>
 8002bf2:	2200      	movs	r2, #0
 8002bf4:	54e2      	strb	r2, [r4, r3]
 8002bf6:	0028      	movs	r0, r5
 8002bf8:	bdf8      	pop	{r3, r4, r5, r6, r7, pc}
 8002bfa:	69c7      	ldr	r7, [r0, #28]
 8002bfc:	0031      	movs	r1, r6
 8002bfe:	0038      	movs	r0, r7
 8002c00:	f7fd fb1c 	bl	800023c <__aeabi_uidivmod>
 8002c04:	2900      	cmp	r1, #0
 8002c06:	d10d      	bne.n	8002c24 <USBD_LL_DataInStage+0x70>
 8002c08:	42be      	cmp	r6, r7
 8002c0a:	d80b      	bhi.n	8002c24 <USBD_LL_DataInStage+0x70>
 8002c0c:	26a6      	movs	r6, #166	; 0xa6
 8002c0e:	00b6      	lsls	r6, r6, #2
 8002c10:	59a3      	ldr	r3, [r4, r6]
 8002c12:	429f      	cmp	r7, r3
 8002c14:	d206      	bcs.n	8002c24 <USBD_LL_DataInStage+0x70>
 8002c16:	002a      	movs	r2, r5
 8002c18:	0029      	movs	r1, r5
 8002c1a:	0020      	movs	r0, r4
 8002c1c:	f000 fac6 	bl	80031ac <USBD_CtlContinueSendData>
 8002c20:	51a5      	str	r5, [r4, r6]
 8002c22:	e7db      	b.n	8002bdc <USBD_LL_DataInStage+0x28>
 8002c24:	23ad      	movs	r3, #173	; 0xad
 8002c26:	009b      	lsls	r3, r3, #2
 8002c28:	58e3      	ldr	r3, [r4, r3]
 8002c2a:	68db      	ldr	r3, [r3, #12]
 8002c2c:	2b00      	cmp	r3, #0
 8002c2e:	d006      	beq.n	8002c3e <USBD_LL_DataInStage+0x8a>
 8002c30:	22a7      	movs	r2, #167	; 0xa7
 8002c32:	0092      	lsls	r2, r2, #2
 8002c34:	5ca2      	ldrb	r2, [r4, r2]
 8002c36:	2a03      	cmp	r2, #3
 8002c38:	d101      	bne.n	8002c3e <USBD_LL_DataInStage+0x8a>
 8002c3a:	0020      	movs	r0, r4
 8002c3c:	4798      	blx	r3
 8002c3e:	2180      	movs	r1, #128	; 0x80
 8002c40:	0020      	movs	r0, r4
 8002c42:	f000 fcad 	bl	80035a0 <USBD_LL_StallEP>
 8002c46:	0020      	movs	r0, r4
 8002c48:	f000 fadc 	bl	8003204 <USBD_CtlReceiveStatus>
 8002c4c:	e7cc      	b.n	8002be8 <USBD_LL_DataInStage+0x34>
 8002c4e:	2204      	movs	r2, #4
 8002c50:	4393      	bics	r3, r2
 8002c52:	d1c9      	bne.n	8002be8 <USBD_LL_DataInStage+0x34>
 8002c54:	2180      	movs	r1, #128	; 0x80
 8002c56:	f000 fca3 	bl	80035a0 <USBD_LL_StallEP>
 8002c5a:	e7c5      	b.n	8002be8 <USBD_LL_DataInStage+0x34>
 8002c5c:	23ad      	movs	r3, #173	; 0xad
 8002c5e:	009b      	lsls	r3, r3, #2
 8002c60:	58c3      	ldr	r3, [r0, r3]
 8002c62:	695b      	ldr	r3, [r3, #20]
 8002c64:	2b00      	cmp	r3, #0
 8002c66:	d008      	beq.n	8002c7a <USBD_LL_DataInStage+0xc6>
 8002c68:	22a7      	movs	r2, #167	; 0xa7
 8002c6a:	0092      	lsls	r2, r2, #2
 8002c6c:	5c82      	ldrb	r2, [r0, r2]
 8002c6e:	2a03      	cmp	r2, #3
 8002c70:	d103      	bne.n	8002c7a <USBD_LL_DataInStage+0xc6>
 8002c72:	0029      	movs	r1, r5
 8002c74:	4798      	blx	r3
 8002c76:	2500      	movs	r5, #0
 8002c78:	e7bd      	b.n	8002bf6 <USBD_LL_DataInStage+0x42>
 8002c7a:	2502      	movs	r5, #2
 8002c7c:	e7bb      	b.n	8002bf6 <USBD_LL_DataInStage+0x42>

08002c7e <USBD_LL_Reset>:
 8002c7e:	2200      	movs	r2, #0
 8002c80:	b570      	push	{r4, r5, r6, lr}
 8002c82:	0004      	movs	r4, r0
 8002c84:	0011      	movs	r1, r2
 8002c86:	2340      	movs	r3, #64	; 0x40
 8002c88:	f000 fc75 	bl	8003576 <USBD_LL_OpenEP>
 8002c8c:	0023      	movs	r3, r4
 8002c8e:	2501      	movs	r5, #1
 8002c90:	2640      	movs	r6, #64	; 0x40
 8002c92:	33fc      	adds	r3, #252	; 0xfc
 8002c94:	2180      	movs	r1, #128	; 0x80
 8002c96:	65dd      	str	r5, [r3, #92]	; 0x5c
 8002c98:	669e      	str	r6, [r3, #104]	; 0x68
 8002c9a:	2200      	movs	r2, #0
 8002c9c:	0033      	movs	r3, r6
 8002c9e:	0020      	movs	r0, r4
 8002ca0:	f000 fc69 	bl	8003576 <USBD_LL_OpenEP>
 8002ca4:	23a7      	movs	r3, #167	; 0xa7
 8002ca6:	2100      	movs	r1, #0
 8002ca8:	009b      	lsls	r3, r3, #2
 8002caa:	61a5      	str	r5, [r4, #24]
 8002cac:	6266      	str	r6, [r4, #36]	; 0x24
 8002cae:	54e5      	strb	r5, [r4, r3]
 8002cb0:	3b08      	subs	r3, #8
 8002cb2:	50e1      	str	r1, [r4, r3]
 8002cb4:	3310      	adds	r3, #16
 8002cb6:	6061      	str	r1, [r4, #4]
 8002cb8:	50e1      	str	r1, [r4, r3]
 8002cba:	3314      	adds	r3, #20
 8002cbc:	58e3      	ldr	r3, [r4, r3]
 8002cbe:	428b      	cmp	r3, r1
 8002cc0:	d005      	beq.n	8002cce <USBD_LL_Reset+0x50>
 8002cc2:	23ad      	movs	r3, #173	; 0xad
 8002cc4:	009b      	lsls	r3, r3, #2
 8002cc6:	58e3      	ldr	r3, [r4, r3]
 8002cc8:	0020      	movs	r0, r4
 8002cca:	685b      	ldr	r3, [r3, #4]
 8002ccc:	4798      	blx	r3
 8002cce:	2000      	movs	r0, #0
 8002cd0:	bd70      	pop	{r4, r5, r6, pc}

08002cd2 <USBD_LL_SetSpeed>:
 8002cd2:	7401      	strb	r1, [r0, #16]
 8002cd4:	2000      	movs	r0, #0
 8002cd6:	4770      	bx	lr

08002cd8 <USBD_LL_Suspend>:
 8002cd8:	23a7      	movs	r3, #167	; 0xa7
 8002cda:	009b      	lsls	r3, r3, #2
 8002cdc:	5cc1      	ldrb	r1, [r0, r3]
 8002cde:	4a03      	ldr	r2, [pc, #12]	; (8002cec <USBD_LL_Suspend+0x14>)
 8002ce0:	5481      	strb	r1, [r0, r2]
 8002ce2:	2204      	movs	r2, #4
 8002ce4:	54c2      	strb	r2, [r0, r3]
 8002ce6:	2000      	movs	r0, #0
 8002ce8:	4770      	bx	lr
 8002cea:	46c0      	nop			; (mov r8, r8)
 8002cec:	0000029d 	.word	0x0000029d

08002cf0 <USBD_LL_Resume>:
 8002cf0:	23a7      	movs	r3, #167	; 0xa7
 8002cf2:	009b      	lsls	r3, r3, #2
 8002cf4:	5cc2      	ldrb	r2, [r0, r3]
 8002cf6:	2a04      	cmp	r2, #4
 8002cf8:	d102      	bne.n	8002d00 <USBD_LL_Resume+0x10>
 8002cfa:	4a02      	ldr	r2, [pc, #8]	; (8002d04 <USBD_LL_Resume+0x14>)
 8002cfc:	5c82      	ldrb	r2, [r0, r2]
 8002cfe:	54c2      	strb	r2, [r0, r3]
 8002d00:	2000      	movs	r0, #0
 8002d02:	4770      	bx	lr
 8002d04:	0000029d 	.word	0x0000029d

08002d08 <USBD_LL_SOF>:
 8002d08:	23a7      	movs	r3, #167	; 0xa7
 8002d0a:	b510      	push	{r4, lr}
 8002d0c:	009b      	lsls	r3, r3, #2
 8002d0e:	5cc3      	ldrb	r3, [r0, r3]
 8002d10:	2b03      	cmp	r3, #3
 8002d12:	d106      	bne.n	8002d22 <USBD_LL_SOF+0x1a>
 8002d14:	23ad      	movs	r3, #173	; 0xad
 8002d16:	009b      	lsls	r3, r3, #2
 8002d18:	58c3      	ldr	r3, [r0, r3]
 8002d1a:	69db      	ldr	r3, [r3, #28]
 8002d1c:	2b00      	cmp	r3, #0
 8002d1e:	d000      	beq.n	8002d22 <USBD_LL_SOF+0x1a>
 8002d20:	4798      	blx	r3
 8002d22:	2000      	movs	r0, #0
 8002d24:	bd10      	pop	{r4, pc}

08002d26 <USBD_CtlError.constprop.0>:
 8002d26:	b510      	push	{r4, lr}
 8002d28:	0004      	movs	r4, r0
 8002d2a:	2180      	movs	r1, #128	; 0x80
 8002d2c:	f000 fc38 	bl	80035a0 <USBD_LL_StallEP>
 8002d30:	2100      	movs	r1, #0
 8002d32:	0020      	movs	r0, r4
 8002d34:	f000 fc34 	bl	80035a0 <USBD_LL_StallEP>
 8002d38:	bd10      	pop	{r4, pc}
	...

08002d3c <USBD_StdDevReq>:
 8002d3c:	2260      	movs	r2, #96	; 0x60
 8002d3e:	780b      	ldrb	r3, [r1, #0]
 8002d40:	b573      	push	{r0, r1, r4, r5, r6, lr}
 8002d42:	4013      	ands	r3, r2
 8002d44:	000d      	movs	r5, r1
 8002d46:	0019      	movs	r1, r3
 8002d48:	1892      	adds	r2, r2, r2
 8002d4a:	3920      	subs	r1, #32
 8002d4c:	0004      	movs	r4, r0
 8002d4e:	4211      	tst	r1, r2
 8002d50:	d012      	beq.n	8002d78 <USBD_StdDevReq+0x3c>
 8002d52:	2b00      	cmp	r3, #0
 8002d54:	d000      	beq.n	8002d58 <USBD_StdDevReq+0x1c>
 8002d56:	e096      	b.n	8002e86 <USBD_StdDevReq+0x14a>
 8002d58:	7868      	ldrb	r0, [r5, #1]
 8002d5a:	2809      	cmp	r0, #9
 8002d5c:	d900      	bls.n	8002d60 <USBD_StdDevReq+0x24>
 8002d5e:	e092      	b.n	8002e86 <USBD_StdDevReq+0x14a>
 8002d60:	f7fd f9dc 	bl	800011c <__gnu_thumb1_case_uhi>
 8002d64:	010d00f0 	.word	0x010d00f0
 8002d68:	01050091 	.word	0x01050091
 8002d6c:	00830091 	.word	0x00830091
 8002d70:	00910012 	.word	0x00910012
 8002d74:	00a400da 	.word	0x00a400da
 8002d78:	23ad      	movs	r3, #173	; 0xad
 8002d7a:	009b      	lsls	r3, r3, #2
 8002d7c:	58c3      	ldr	r3, [r0, r3]
 8002d7e:	0029      	movs	r1, r5
 8002d80:	689b      	ldr	r3, [r3, #8]
 8002d82:	4798      	blx	r3
 8002d84:	2000      	movs	r0, #0
 8002d86:	bd76      	pop	{r1, r2, r4, r5, r6, pc}
 8002d88:	2300      	movs	r3, #0
 8002d8a:	466a      	mov	r2, sp
 8002d8c:	80d3      	strh	r3, [r2, #6]
 8002d8e:	886b      	ldrh	r3, [r5, #2]
 8002d90:	0a18      	lsrs	r0, r3, #8
 8002d92:	3801      	subs	r0, #1
 8002d94:	2806      	cmp	r0, #6
 8002d96:	d876      	bhi.n	8002e86 <USBD_StdDevReq+0x14a>
 8002d98:	f7fd f9b6 	bl	8000108 <__gnu_thumb1_case_uqi>
 8002d9c:	75261704 	.word	0x75261704
 8002da0:	4075      	.short	0x4075
 8002da2:	4b          	.byte	0x4b
 8002da3:	00          	.byte	0x00
 8002da4:	23ac      	movs	r3, #172	; 0xac
 8002da6:	009b      	lsls	r3, r3, #2
 8002da8:	58e3      	ldr	r3, [r4, r3]
 8002daa:	7c20      	ldrb	r0, [r4, #16]
 8002dac:	681b      	ldr	r3, [r3, #0]
 8002dae:	466a      	mov	r2, sp
 8002db0:	1d91      	adds	r1, r2, #6
 8002db2:	4798      	blx	r3
 8002db4:	466b      	mov	r3, sp
 8002db6:	88d9      	ldrh	r1, [r3, #6]
 8002db8:	88ea      	ldrh	r2, [r5, #6]
 8002dba:	2900      	cmp	r1, #0
 8002dbc:	d050      	beq.n	8002e60 <USBD_StdDevReq+0x124>
 8002dbe:	2a00      	cmp	r2, #0
 8002dc0:	d143      	bne.n	8002e4a <USBD_StdDevReq+0x10e>
 8002dc2:	0020      	movs	r0, r4
 8002dc4:	f000 fa12 	bl	80031ec <USBD_CtlSendStatus>
 8002dc8:	e7dc      	b.n	8002d84 <USBD_StdDevReq+0x48>
 8002dca:	23ad      	movs	r3, #173	; 0xad
 8002dcc:	7c22      	ldrb	r2, [r4, #16]
 8002dce:	009b      	lsls	r3, r3, #2
 8002dd0:	58e3      	ldr	r3, [r4, r3]
 8002dd2:	2a00      	cmp	r2, #0
 8002dd4:	d106      	bne.n	8002de4 <USBD_StdDevReq+0xa8>
 8002dd6:	6a9b      	ldr	r3, [r3, #40]	; 0x28
 8002dd8:	466a      	mov	r2, sp
 8002dda:	1d90      	adds	r0, r2, #6
 8002ddc:	4798      	blx	r3
 8002dde:	2302      	movs	r3, #2
 8002de0:	7043      	strb	r3, [r0, #1]
 8002de2:	e7e7      	b.n	8002db4 <USBD_StdDevReq+0x78>
 8002de4:	6adb      	ldr	r3, [r3, #44]	; 0x2c
 8002de6:	e7f7      	b.n	8002dd8 <USBD_StdDevReq+0x9c>
 8002de8:	b2d8      	uxtb	r0, r3
 8002dea:	2805      	cmp	r0, #5
 8002dec:	d84b      	bhi.n	8002e86 <USBD_StdDevReq+0x14a>
 8002dee:	23ac      	movs	r3, #172	; 0xac
 8002df0:	009b      	lsls	r3, r3, #2
 8002df2:	58e3      	ldr	r3, [r4, r3]
 8002df4:	f7fd f988 	bl	8000108 <__gnu_thumb1_case_uqi>
 8002df8:	0c0a0803 	.word	0x0c0a0803
 8002dfc:	100e      	.short	0x100e
 8002dfe:	685b      	ldr	r3, [r3, #4]
 8002e00:	2b00      	cmp	r3, #0
 8002e02:	d040      	beq.n	8002e86 <USBD_StdDevReq+0x14a>
 8002e04:	7c20      	ldrb	r0, [r4, #16]
 8002e06:	e7d2      	b.n	8002dae <USBD_StdDevReq+0x72>
 8002e08:	689b      	ldr	r3, [r3, #8]
 8002e0a:	e7f9      	b.n	8002e00 <USBD_StdDevReq+0xc4>
 8002e0c:	68db      	ldr	r3, [r3, #12]
 8002e0e:	e7f7      	b.n	8002e00 <USBD_StdDevReq+0xc4>
 8002e10:	691b      	ldr	r3, [r3, #16]
 8002e12:	e7f5      	b.n	8002e00 <USBD_StdDevReq+0xc4>
 8002e14:	695b      	ldr	r3, [r3, #20]
 8002e16:	e7f3      	b.n	8002e00 <USBD_StdDevReq+0xc4>
 8002e18:	699b      	ldr	r3, [r3, #24]
 8002e1a:	e7f1      	b.n	8002e00 <USBD_StdDevReq+0xc4>
 8002e1c:	7c23      	ldrb	r3, [r4, #16]
 8002e1e:	2b00      	cmp	r3, #0
 8002e20:	d131      	bne.n	8002e86 <USBD_StdDevReq+0x14a>
 8002e22:	23ad      	movs	r3, #173	; 0xad
 8002e24:	466a      	mov	r2, sp
 8002e26:	009b      	lsls	r3, r3, #2
 8002e28:	58e3      	ldr	r3, [r4, r3]
 8002e2a:	1d90      	adds	r0, r2, #6
 8002e2c:	6b5b      	ldr	r3, [r3, #52]	; 0x34
 8002e2e:	4798      	blx	r3
 8002e30:	e7c0      	b.n	8002db4 <USBD_StdDevReq+0x78>
 8002e32:	7c23      	ldrb	r3, [r4, #16]
 8002e34:	2b00      	cmp	r3, #0
 8002e36:	d126      	bne.n	8002e86 <USBD_StdDevReq+0x14a>
 8002e38:	23ad      	movs	r3, #173	; 0xad
 8002e3a:	466a      	mov	r2, sp
 8002e3c:	009b      	lsls	r3, r3, #2
 8002e3e:	58e3      	ldr	r3, [r4, r3]
 8002e40:	1d90      	adds	r0, r2, #6
 8002e42:	6b1b      	ldr	r3, [r3, #48]	; 0x30
 8002e44:	4798      	blx	r3
 8002e46:	2307      	movs	r3, #7
 8002e48:	e7ca      	b.n	8002de0 <USBD_StdDevReq+0xa4>
 8002e4a:	1c0b      	adds	r3, r1, #0
 8002e4c:	4291      	cmp	r1, r2
 8002e4e:	d900      	bls.n	8002e52 <USBD_StdDevReq+0x116>
 8002e50:	1c13      	adds	r3, r2, #0
 8002e52:	4669      	mov	r1, sp
 8002e54:	b29a      	uxth	r2, r3
 8002e56:	80cb      	strh	r3, [r1, #6]
 8002e58:	0001      	movs	r1, r0
 8002e5a:	0020      	movs	r0, r4
 8002e5c:	f000 f998 	bl	8003190 <USBD_CtlSendData>
 8002e60:	88eb      	ldrh	r3, [r5, #6]
 8002e62:	2b00      	cmp	r3, #0
 8002e64:	d000      	beq.n	8002e68 <USBD_StdDevReq+0x12c>
 8002e66:	e78d      	b.n	8002d84 <USBD_StdDevReq+0x48>
 8002e68:	e7ab      	b.n	8002dc2 <USBD_StdDevReq+0x86>
 8002e6a:	88ab      	ldrh	r3, [r5, #4]
 8002e6c:	2b00      	cmp	r3, #0
 8002e6e:	d10a      	bne.n	8002e86 <USBD_StdDevReq+0x14a>
 8002e70:	88eb      	ldrh	r3, [r5, #6]
 8002e72:	2b00      	cmp	r3, #0
 8002e74:	d107      	bne.n	8002e86 <USBD_StdDevReq+0x14a>
 8002e76:	886e      	ldrh	r6, [r5, #2]
 8002e78:	2e7f      	cmp	r6, #127	; 0x7f
 8002e7a:	d804      	bhi.n	8002e86 <USBD_StdDevReq+0x14a>
 8002e7c:	25a7      	movs	r5, #167	; 0xa7
 8002e7e:	00ad      	lsls	r5, r5, #2
 8002e80:	5d63      	ldrb	r3, [r4, r5]
 8002e82:	2b03      	cmp	r3, #3
 8002e84:	d103      	bne.n	8002e8e <USBD_StdDevReq+0x152>
 8002e86:	0020      	movs	r0, r4
 8002e88:	f7ff ff4d 	bl	8002d26 <USBD_CtlError.constprop.0>
 8002e8c:	e77a      	b.n	8002d84 <USBD_StdDevReq+0x48>
 8002e8e:	4b44      	ldr	r3, [pc, #272]	; (8002fa0 <USBD_StdDevReq+0x264>)
 8002e90:	b2f1      	uxtb	r1, r6
 8002e92:	54e1      	strb	r1, [r4, r3]
 8002e94:	0020      	movs	r0, r4
 8002e96:	f000 fbaa 	bl	80035ee <USBD_LL_SetUSBAddress>
 8002e9a:	0020      	movs	r0, r4
 8002e9c:	f000 f9a6 	bl	80031ec <USBD_CtlSendStatus>
 8002ea0:	2302      	movs	r3, #2
 8002ea2:	2e00      	cmp	r6, #0
 8002ea4:	d100      	bne.n	8002ea8 <USBD_StdDevReq+0x16c>
 8002ea6:	2301      	movs	r3, #1
 8002ea8:	5563      	strb	r3, [r4, r5]
 8002eaa:	e76b      	b.n	8002d84 <USBD_StdDevReq+0x48>
 8002eac:	78a9      	ldrb	r1, [r5, #2]
 8002eae:	4d3d      	ldr	r5, [pc, #244]	; (8002fa4 <USBD_StdDevReq+0x268>)
 8002eb0:	7029      	strb	r1, [r5, #0]
 8002eb2:	2901      	cmp	r1, #1
 8002eb4:	d8e7      	bhi.n	8002e86 <USBD_StdDevReq+0x14a>
 8002eb6:	23a7      	movs	r3, #167	; 0xa7
 8002eb8:	009b      	lsls	r3, r3, #2
 8002eba:	5ce2      	ldrb	r2, [r4, r3]
 8002ebc:	2a02      	cmp	r2, #2
 8002ebe:	d009      	beq.n	8002ed4 <USBD_StdDevReq+0x198>
 8002ec0:	2a03      	cmp	r2, #3
 8002ec2:	d015      	beq.n	8002ef0 <USBD_StdDevReq+0x1b4>
 8002ec4:	0020      	movs	r0, r4
 8002ec6:	f7ff ff2e 	bl	8002d26 <USBD_CtlError.constprop.0>
 8002eca:	0020      	movs	r0, r4
 8002ecc:	7829      	ldrb	r1, [r5, #0]
 8002ece:	f7ff fdf0 	bl	8002ab2 <USBD_ClrClassConfig>
 8002ed2:	e757      	b.n	8002d84 <USBD_StdDevReq+0x48>
 8002ed4:	2900      	cmp	r1, #0
 8002ed6:	d100      	bne.n	8002eda <USBD_StdDevReq+0x19e>
 8002ed8:	e773      	b.n	8002dc2 <USBD_StdDevReq+0x86>
 8002eda:	2101      	movs	r1, #1
 8002edc:	2203      	movs	r2, #3
 8002ede:	6061      	str	r1, [r4, #4]
 8002ee0:	54e2      	strb	r2, [r4, r3]
 8002ee2:	0020      	movs	r0, r4
 8002ee4:	f7ff fdd7 	bl	8002a96 <USBD_SetClassConfig>
 8002ee8:	2802      	cmp	r0, #2
 8002eea:	d000      	beq.n	8002eee <USBD_StdDevReq+0x1b2>
 8002eec:	e769      	b.n	8002dc2 <USBD_StdDevReq+0x86>
 8002eee:	e7ca      	b.n	8002e86 <USBD_StdDevReq+0x14a>
 8002ef0:	2900      	cmp	r1, #0
 8002ef2:	d106      	bne.n	8002f02 <USBD_StdDevReq+0x1c6>
 8002ef4:	2202      	movs	r2, #2
 8002ef6:	0020      	movs	r0, r4
 8002ef8:	54e2      	strb	r2, [r4, r3]
 8002efa:	6061      	str	r1, [r4, #4]
 8002efc:	f7ff fdd9 	bl	8002ab2 <USBD_ClrClassConfig>
 8002f00:	e75f      	b.n	8002dc2 <USBD_StdDevReq+0x86>
 8002f02:	6861      	ldr	r1, [r4, #4]
 8002f04:	2901      	cmp	r1, #1
 8002f06:	d100      	bne.n	8002f0a <USBD_StdDevReq+0x1ce>
 8002f08:	e75b      	b.n	8002dc2 <USBD_StdDevReq+0x86>
 8002f0a:	b2c9      	uxtb	r1, r1
 8002f0c:	0020      	movs	r0, r4
 8002f0e:	f7ff fdd0 	bl	8002ab2 <USBD_ClrClassConfig>
 8002f12:	7829      	ldrb	r1, [r5, #0]
 8002f14:	6061      	str	r1, [r4, #4]
 8002f16:	e7e4      	b.n	8002ee2 <USBD_StdDevReq+0x1a6>
 8002f18:	88ea      	ldrh	r2, [r5, #6]
 8002f1a:	2a01      	cmp	r2, #1
 8002f1c:	d1b3      	bne.n	8002e86 <USBD_StdDevReq+0x14a>
 8002f1e:	23a7      	movs	r3, #167	; 0xa7
 8002f20:	009b      	lsls	r3, r3, #2
 8002f22:	5ce3      	ldrb	r3, [r4, r3]
 8002f24:	2b02      	cmp	r3, #2
 8002f26:	d806      	bhi.n	8002f36 <USBD_StdDevReq+0x1fa>
 8002f28:	2b00      	cmp	r3, #0
 8002f2a:	d0ac      	beq.n	8002e86 <USBD_StdDevReq+0x14a>
 8002f2c:	2300      	movs	r3, #0
 8002f2e:	0021      	movs	r1, r4
 8002f30:	60a3      	str	r3, [r4, #8]
 8002f32:	3108      	adds	r1, #8
 8002f34:	e002      	b.n	8002f3c <USBD_StdDevReq+0x200>
 8002f36:	1d21      	adds	r1, r4, #4
 8002f38:	2b03      	cmp	r3, #3
 8002f3a:	d1a4      	bne.n	8002e86 <USBD_StdDevReq+0x14a>
 8002f3c:	0020      	movs	r0, r4
 8002f3e:	f000 f927 	bl	8003190 <USBD_CtlSendData>
 8002f42:	e71f      	b.n	8002d84 <USBD_StdDevReq+0x48>
 8002f44:	23a7      	movs	r3, #167	; 0xa7
 8002f46:	009b      	lsls	r3, r3, #2
 8002f48:	5ce3      	ldrb	r3, [r4, r3]
 8002f4a:	3b01      	subs	r3, #1
 8002f4c:	2b02      	cmp	r3, #2
 8002f4e:	d89a      	bhi.n	8002e86 <USBD_StdDevReq+0x14a>
 8002f50:	88eb      	ldrh	r3, [r5, #6]
 8002f52:	2b02      	cmp	r3, #2
 8002f54:	d197      	bne.n	8002e86 <USBD_StdDevReq+0x14a>
 8002f56:	23a9      	movs	r3, #169	; 0xa9
 8002f58:	009b      	lsls	r3, r3, #2
 8002f5a:	58e2      	ldr	r2, [r4, r3]
 8002f5c:	2303      	movs	r3, #3
 8002f5e:	2a00      	cmp	r2, #0
 8002f60:	d100      	bne.n	8002f64 <USBD_StdDevReq+0x228>
 8002f62:	3b02      	subs	r3, #2
 8002f64:	0021      	movs	r1, r4
 8002f66:	2202      	movs	r2, #2
 8002f68:	60e3      	str	r3, [r4, #12]
 8002f6a:	310c      	adds	r1, #12
 8002f6c:	e7e6      	b.n	8002f3c <USBD_StdDevReq+0x200>
 8002f6e:	886b      	ldrh	r3, [r5, #2]
 8002f70:	2b01      	cmp	r3, #1
 8002f72:	d000      	beq.n	8002f76 <USBD_StdDevReq+0x23a>
 8002f74:	e706      	b.n	8002d84 <USBD_StdDevReq+0x48>
 8002f76:	22a9      	movs	r2, #169	; 0xa9
 8002f78:	0092      	lsls	r2, r2, #2
 8002f7a:	50a3      	str	r3, [r4, r2]
 8002f7c:	e721      	b.n	8002dc2 <USBD_StdDevReq+0x86>
 8002f7e:	23a7      	movs	r3, #167	; 0xa7
 8002f80:	009b      	lsls	r3, r3, #2
 8002f82:	5ce3      	ldrb	r3, [r4, r3]
 8002f84:	3b01      	subs	r3, #1
 8002f86:	2b02      	cmp	r3, #2
 8002f88:	d900      	bls.n	8002f8c <USBD_StdDevReq+0x250>
 8002f8a:	e77c      	b.n	8002e86 <USBD_StdDevReq+0x14a>
 8002f8c:	886b      	ldrh	r3, [r5, #2]
 8002f8e:	2b01      	cmp	r3, #1
 8002f90:	d000      	beq.n	8002f94 <USBD_StdDevReq+0x258>
 8002f92:	e6f7      	b.n	8002d84 <USBD_StdDevReq+0x48>
 8002f94:	23a9      	movs	r3, #169	; 0xa9
 8002f96:	2200      	movs	r2, #0
 8002f98:	009b      	lsls	r3, r3, #2
 8002f9a:	50e2      	str	r2, [r4, r3]
 8002f9c:	e711      	b.n	8002dc2 <USBD_StdDevReq+0x86>
 8002f9e:	46c0      	nop			; (mov r8, r8)
 8002fa0:	0000029e 	.word	0x0000029e
 8002fa4:	2000019c 	.word	0x2000019c

08002fa8 <USBD_StdItfReq>:
 8002fa8:	2260      	movs	r2, #96	; 0x60
 8002faa:	780b      	ldrb	r3, [r1, #0]
 8002fac:	b570      	push	{r4, r5, r6, lr}
 8002fae:	401a      	ands	r2, r3
 8002fb0:	0004      	movs	r4, r0
 8002fb2:	000d      	movs	r5, r1
 8002fb4:	2a40      	cmp	r2, #64	; 0x40
 8002fb6:	d001      	beq.n	8002fbc <USBD_StdItfReq+0x14>
 8002fb8:	065b      	lsls	r3, r3, #25
 8002fba:	d419      	bmi.n	8002ff0 <USBD_StdItfReq+0x48>
 8002fbc:	23a7      	movs	r3, #167	; 0xa7
 8002fbe:	009b      	lsls	r3, r3, #2
 8002fc0:	5ce3      	ldrb	r3, [r4, r3]
 8002fc2:	3b01      	subs	r3, #1
 8002fc4:	2b02      	cmp	r3, #2
 8002fc6:	d813      	bhi.n	8002ff0 <USBD_StdItfReq+0x48>
 8002fc8:	792b      	ldrb	r3, [r5, #4]
 8002fca:	2b01      	cmp	r3, #1
 8002fcc:	d810      	bhi.n	8002ff0 <USBD_StdItfReq+0x48>
 8002fce:	23ad      	movs	r3, #173	; 0xad
 8002fd0:	009b      	lsls	r3, r3, #2
 8002fd2:	58e3      	ldr	r3, [r4, r3]
 8002fd4:	0029      	movs	r1, r5
 8002fd6:	689b      	ldr	r3, [r3, #8]
 8002fd8:	0020      	movs	r0, r4
 8002fda:	4798      	blx	r3
 8002fdc:	88eb      	ldrh	r3, [r5, #6]
 8002fde:	2b00      	cmp	r3, #0
 8002fe0:	d104      	bne.n	8002fec <USBD_StdItfReq+0x44>
 8002fe2:	2800      	cmp	r0, #0
 8002fe4:	d102      	bne.n	8002fec <USBD_StdItfReq+0x44>
 8002fe6:	0020      	movs	r0, r4
 8002fe8:	f000 f900 	bl	80031ec <USBD_CtlSendStatus>
 8002fec:	2000      	movs	r0, #0
 8002fee:	bd70      	pop	{r4, r5, r6, pc}
 8002ff0:	0020      	movs	r0, r4
 8002ff2:	f7ff fe98 	bl	8002d26 <USBD_CtlError.constprop.0>
 8002ff6:	e7f9      	b.n	8002fec <USBD_StdItfReq+0x44>

08002ff8 <USBD_StdEPReq>:
 8002ff8:	b570      	push	{r4, r5, r6, lr}
 8002ffa:	780a      	ldrb	r2, [r1, #0]
 8002ffc:	0004      	movs	r4, r0
 8002ffe:	000b      	movs	r3, r1
 8003000:	8888      	ldrh	r0, [r1, #4]
 8003002:	2160      	movs	r1, #96	; 0x60
 8003004:	400a      	ands	r2, r1
 8003006:	0015      	movs	r5, r2
 8003008:	1849      	adds	r1, r1, r1
 800300a:	3d20      	subs	r5, #32
 800300c:	420d      	tst	r5, r1
 800300e:	d02b      	beq.n	8003068 <USBD_StdEPReq+0x70>
 8003010:	2a00      	cmp	r2, #0
 8003012:	d139      	bne.n	8003088 <USBD_StdEPReq+0x90>
 8003014:	785a      	ldrb	r2, [r3, #1]
 8003016:	b2c1      	uxtb	r1, r0
 8003018:	2a01      	cmp	r2, #1
 800301a:	d048      	beq.n	80030ae <USBD_StdEPReq+0xb6>
 800301c:	2a03      	cmp	r2, #3
 800301e:	d02c      	beq.n	800307a <USBD_StdEPReq+0x82>
 8003020:	2a00      	cmp	r2, #0
 8003022:	d131      	bne.n	8003088 <USBD_StdEPReq+0x90>
 8003024:	23a7      	movs	r3, #167	; 0xa7
 8003026:	009b      	lsls	r3, r3, #2
 8003028:	5ce3      	ldrb	r3, [r4, r3]
 800302a:	2b02      	cmp	r3, #2
 800302c:	d059      	beq.n	80030e2 <USBD_StdEPReq+0xea>
 800302e:	2b03      	cmp	r3, #3
 8003030:	d12a      	bne.n	8003088 <USBD_StdEPReq+0x90>
 8003032:	230f      	movs	r3, #15
 8003034:	2214      	movs	r2, #20
 8003036:	400b      	ands	r3, r1
 8003038:	4353      	muls	r3, r2
 800303a:	18e3      	adds	r3, r4, r3
 800303c:	0600      	lsls	r0, r0, #24
 800303e:	d560      	bpl.n	8003102 <USBD_StdEPReq+0x10a>
 8003040:	699b      	ldr	r3, [r3, #24]
 8003042:	2b00      	cmp	r3, #0
 8003044:	d020      	beq.n	8003088 <USBD_StdEPReq+0x90>
 8003046:	237f      	movs	r3, #127	; 0x7f
 8003048:	400b      	ands	r3, r1
 800304a:	3301      	adds	r3, #1
 800304c:	4353      	muls	r3, r2
 800304e:	18e5      	adds	r5, r4, r3
 8003050:	2000      	movs	r0, #0
 8003052:	064b      	lsls	r3, r1, #25
 8003054:	d004      	beq.n	8003060 <USBD_StdEPReq+0x68>
 8003056:	0020      	movs	r0, r4
 8003058:	f000 fab4 	bl	80035c4 <USBD_LL_IsStallEP>
 800305c:	1e43      	subs	r3, r0, #1
 800305e:	4198      	sbcs	r0, r3
 8003060:	2202      	movs	r2, #2
 8003062:	0029      	movs	r1, r5
 8003064:	6028      	str	r0, [r5, #0]
 8003066:	e048      	b.n	80030fa <USBD_StdEPReq+0x102>
 8003068:	22ad      	movs	r2, #173	; 0xad
 800306a:	0092      	lsls	r2, r2, #2
 800306c:	58a2      	ldr	r2, [r4, r2]
 800306e:	0019      	movs	r1, r3
 8003070:	0020      	movs	r0, r4
 8003072:	6892      	ldr	r2, [r2, #8]
 8003074:	4790      	blx	r2
 8003076:	2000      	movs	r0, #0
 8003078:	bd70      	pop	{r4, r5, r6, pc}
 800307a:	22a7      	movs	r2, #167	; 0xa7
 800307c:	0092      	lsls	r2, r2, #2
 800307e:	5ca2      	ldrb	r2, [r4, r2]
 8003080:	2a02      	cmp	r2, #2
 8003082:	d024      	beq.n	80030ce <USBD_StdEPReq+0xd6>
 8003084:	2a03      	cmp	r2, #3
 8003086:	d003      	beq.n	8003090 <USBD_StdEPReq+0x98>
 8003088:	0020      	movs	r0, r4
 800308a:	f7ff fe4c 	bl	8002d26 <USBD_CtlError.constprop.0>
 800308e:	e7f2      	b.n	8003076 <USBD_StdEPReq+0x7e>
 8003090:	885a      	ldrh	r2, [r3, #2]
 8003092:	2a00      	cmp	r2, #0
 8003094:	d107      	bne.n	80030a6 <USBD_StdEPReq+0xae>
 8003096:	064a      	lsls	r2, r1, #25
 8003098:	d005      	beq.n	80030a6 <USBD_StdEPReq+0xae>
 800309a:	88db      	ldrh	r3, [r3, #6]
 800309c:	2b00      	cmp	r3, #0
 800309e:	d102      	bne.n	80030a6 <USBD_StdEPReq+0xae>
 80030a0:	0020      	movs	r0, r4
 80030a2:	f000 fa7d 	bl	80035a0 <USBD_LL_StallEP>
 80030a6:	0020      	movs	r0, r4
 80030a8:	f000 f8a0 	bl	80031ec <USBD_CtlSendStatus>
 80030ac:	e7e3      	b.n	8003076 <USBD_StdEPReq+0x7e>
 80030ae:	22a7      	movs	r2, #167	; 0xa7
 80030b0:	0092      	lsls	r2, r2, #2
 80030b2:	5ca2      	ldrb	r2, [r4, r2]
 80030b4:	2a02      	cmp	r2, #2
 80030b6:	d00a      	beq.n	80030ce <USBD_StdEPReq+0xd6>
 80030b8:	2a03      	cmp	r2, #3
 80030ba:	d1e5      	bne.n	8003088 <USBD_StdEPReq+0x90>
 80030bc:	885b      	ldrh	r3, [r3, #2]
 80030be:	2b00      	cmp	r3, #0
 80030c0:	d1d9      	bne.n	8003076 <USBD_StdEPReq+0x7e>
 80030c2:	064b      	lsls	r3, r1, #25
 80030c4:	d0ef      	beq.n	80030a6 <USBD_StdEPReq+0xae>
 80030c6:	0020      	movs	r0, r4
 80030c8:	f000 fa73 	bl	80035b2 <USBD_LL_ClearStallEP>
 80030cc:	e7eb      	b.n	80030a6 <USBD_StdEPReq+0xae>
 80030ce:	064b      	lsls	r3, r1, #25
 80030d0:	d0da      	beq.n	8003088 <USBD_StdEPReq+0x90>
 80030d2:	0020      	movs	r0, r4
 80030d4:	f000 fa64 	bl	80035a0 <USBD_LL_StallEP>
 80030d8:	2180      	movs	r1, #128	; 0x80
 80030da:	0020      	movs	r0, r4
 80030dc:	f000 fa60 	bl	80035a0 <USBD_LL_StallEP>
 80030e0:	e7c9      	b.n	8003076 <USBD_StdEPReq+0x7e>
 80030e2:	0649      	lsls	r1, r1, #25
 80030e4:	d1d0      	bne.n	8003088 <USBD_StdEPReq+0x90>
 80030e6:	0021      	movs	r1, r4
 80030e8:	3155      	adds	r1, #85	; 0x55
 80030ea:	31ff      	adds	r1, #255	; 0xff
 80030ec:	0600      	lsls	r0, r0, #24
 80030ee:	d501      	bpl.n	80030f4 <USBD_StdEPReq+0xfc>
 80030f0:	3941      	subs	r1, #65	; 0x41
 80030f2:	39ff      	subs	r1, #255	; 0xff
 80030f4:	2300      	movs	r3, #0
 80030f6:	2202      	movs	r2, #2
 80030f8:	600b      	str	r3, [r1, #0]
 80030fa:	0020      	movs	r0, r4
 80030fc:	f000 f848 	bl	8003190 <USBD_CtlSendData>
 8003100:	e7b9      	b.n	8003076 <USBD_StdEPReq+0x7e>
 8003102:	33fc      	adds	r3, #252	; 0xfc
 8003104:	6ddb      	ldr	r3, [r3, #92]	; 0x5c
 8003106:	2b00      	cmp	r3, #0
 8003108:	d0be      	beq.n	8003088 <USBD_StdEPReq+0x90>
 800310a:	237f      	movs	r3, #127	; 0x7f
 800310c:	400b      	ands	r3, r1
 800310e:	435a      	muls	r2, r3
 8003110:	3255      	adds	r2, #85	; 0x55
 8003112:	32ff      	adds	r2, #255	; 0xff
 8003114:	18a5      	adds	r5, r4, r2
 8003116:	e79b      	b.n	8003050 <USBD_StdEPReq+0x58>

08003118 <USBD_ParseSetupRequest>:
 8003118:	780b      	ldrb	r3, [r1, #0]
 800311a:	7003      	strb	r3, [r0, #0]
 800311c:	784b      	ldrb	r3, [r1, #1]
 800311e:	7043      	strb	r3, [r0, #1]
 8003120:	78ca      	ldrb	r2, [r1, #3]
 8003122:	788b      	ldrb	r3, [r1, #2]
 8003124:	0212      	lsls	r2, r2, #8
 8003126:	189b      	adds	r3, r3, r2
 8003128:	8043      	strh	r3, [r0, #2]
 800312a:	794a      	ldrb	r2, [r1, #5]
 800312c:	790b      	ldrb	r3, [r1, #4]
 800312e:	0212      	lsls	r2, r2, #8
 8003130:	189b      	adds	r3, r3, r2
 8003132:	8083      	strh	r3, [r0, #4]
 8003134:	79ca      	ldrb	r2, [r1, #7]
 8003136:	798b      	ldrb	r3, [r1, #6]
 8003138:	0212      	lsls	r2, r2, #8
 800313a:	189b      	adds	r3, r3, r2
 800313c:	80c3      	strh	r3, [r0, #6]
 800313e:	4770      	bx	lr

08003140 <USBD_CtlError>:
 8003140:	b510      	push	{r4, lr}
 8003142:	0004      	movs	r4, r0
 8003144:	2180      	movs	r1, #128	; 0x80
 8003146:	f000 fa2b 	bl	80035a0 <USBD_LL_StallEP>
 800314a:	2100      	movs	r1, #0
 800314c:	0020      	movs	r0, r4
 800314e:	f000 fa27 	bl	80035a0 <USBD_LL_StallEP>
 8003152:	bd10      	pop	{r4, pc}

08003154 <USBD_GetString>:
 8003154:	b570      	push	{r4, r5, r6, lr}
 8003156:	2500      	movs	r5, #0
 8003158:	1e46      	subs	r6, r0, #1
 800315a:	42a8      	cmp	r0, r5
 800315c:	d00f      	beq.n	800317e <USBD_GetString+0x2a>
 800315e:	002b      	movs	r3, r5
 8003160:	3501      	adds	r5, #1
 8003162:	5d74      	ldrb	r4, [r6, r5]
 8003164:	2c00      	cmp	r4, #0
 8003166:	d1fa      	bne.n	800315e <USBD_GetString+0xa>
 8003168:	b2db      	uxtb	r3, r3
 800316a:	3301      	adds	r3, #1
 800316c:	005b      	lsls	r3, r3, #1
 800316e:	8013      	strh	r3, [r2, #0]
 8003170:	700b      	strb	r3, [r1, #0]
 8003172:	2303      	movs	r3, #3
 8003174:	704b      	strb	r3, [r1, #1]
 8003176:	3b01      	subs	r3, #1
 8003178:	7805      	ldrb	r5, [r0, #0]
 800317a:	2d00      	cmp	r5, #0
 800317c:	d100      	bne.n	8003180 <USBD_GetString+0x2c>
 800317e:	bd70      	pop	{r4, r5, r6, pc}
 8003180:	1c5a      	adds	r2, r3, #1
 8003182:	54cd      	strb	r5, [r1, r3]
 8003184:	b2d2      	uxtb	r2, r2
 8003186:	3302      	adds	r3, #2
 8003188:	3001      	adds	r0, #1
 800318a:	b2db      	uxtb	r3, r3
 800318c:	548c      	strb	r4, [r1, r2]
 800318e:	e7f3      	b.n	8003178 <USBD_GetString+0x24>

08003190 <USBD_CtlSendData>:
 8003190:	0013      	movs	r3, r2
 8003192:	22a5      	movs	r2, #165	; 0xa5
 8003194:	b510      	push	{r4, lr}
 8003196:	2402      	movs	r4, #2
 8003198:	0092      	lsls	r2, r2, #2
 800319a:	5084      	str	r4, [r0, r2]
 800319c:	000a      	movs	r2, r1
 800319e:	61c3      	str	r3, [r0, #28]
 80031a0:	2100      	movs	r1, #0
 80031a2:	6203      	str	r3, [r0, #32]
 80031a4:	f000 fa2c 	bl	8003600 <USBD_LL_Transmit>
 80031a8:	2000      	movs	r0, #0
 80031aa:	bd10      	pop	{r4, pc}

080031ac <USBD_CtlContinueSendData>:
 80031ac:	b510      	push	{r4, lr}
 80031ae:	0013      	movs	r3, r2
 80031b0:	000a      	movs	r2, r1
 80031b2:	2100      	movs	r1, #0
 80031b4:	f000 fa24 	bl	8003600 <USBD_LL_Transmit>
 80031b8:	2000      	movs	r0, #0
 80031ba:	bd10      	pop	{r4, pc}

080031bc <USBD_CtlPrepareRx>:
 80031bc:	0013      	movs	r3, r2
 80031be:	22a5      	movs	r2, #165	; 0xa5
 80031c0:	b510      	push	{r4, lr}
 80031c2:	2403      	movs	r4, #3
 80031c4:	0092      	lsls	r2, r2, #2
 80031c6:	5084      	str	r4, [r0, r2]
 80031c8:	0002      	movs	r2, r0
 80031ca:	32fc      	adds	r2, #252	; 0xfc
 80031cc:	6613      	str	r3, [r2, #96]	; 0x60
 80031ce:	6653      	str	r3, [r2, #100]	; 0x64
 80031d0:	000a      	movs	r2, r1
 80031d2:	2100      	movs	r1, #0
 80031d4:	f000 fa1d 	bl	8003612 <USBD_LL_PrepareReceive>
 80031d8:	2000      	movs	r0, #0
 80031da:	bd10      	pop	{r4, pc}

080031dc <USBD_CtlContinueRx>:
 80031dc:	b510      	push	{r4, lr}
 80031de:	0013      	movs	r3, r2
 80031e0:	000a      	movs	r2, r1
 80031e2:	2100      	movs	r1, #0
 80031e4:	f000 fa15 	bl	8003612 <USBD_LL_PrepareReceive>
 80031e8:	2000      	movs	r0, #0
 80031ea:	bd10      	pop	{r4, pc}

080031ec <USBD_CtlSendStatus>:
 80031ec:	23a5      	movs	r3, #165	; 0xa5
 80031ee:	2204      	movs	r2, #4
 80031f0:	009b      	lsls	r3, r3, #2
 80031f2:	b510      	push	{r4, lr}
 80031f4:	50c2      	str	r2, [r0, r3]
 80031f6:	2300      	movs	r3, #0
 80031f8:	001a      	movs	r2, r3
 80031fa:	0019      	movs	r1, r3
 80031fc:	f000 fa00 	bl	8003600 <USBD_LL_Transmit>
 8003200:	2000      	movs	r0, #0
 8003202:	bd10      	pop	{r4, pc}

08003204 <USBD_CtlReceiveStatus>:
 8003204:	23a5      	movs	r3, #165	; 0xa5
 8003206:	2205      	movs	r2, #5
 8003208:	009b      	lsls	r3, r3, #2
 800320a:	b510      	push	{r4, lr}
 800320c:	50c2      	str	r2, [r0, r3]
 800320e:	2300      	movs	r3, #0
 8003210:	001a      	movs	r2, r3
 8003212:	0019      	movs	r1, r3
 8003214:	f000 f9fd 	bl	8003612 <USBD_LL_PrepareReceive>
 8003218:	2000      	movs	r0, #0
 800321a:	bd10      	pop	{r4, pc}

0800321c <MX_USB_DEVICE_Init>:
 800321c:	b510      	push	{r4, lr}
 800321e:	4c11      	ldr	r4, [pc, #68]	; (8003264 <MX_USB_DEVICE_Init+0x48>)
 8003220:	2200      	movs	r2, #0
 8003222:	0020      	movs	r0, r4
 8003224:	4910      	ldr	r1, [pc, #64]	; (8003268 <MX_USB_DEVICE_Init+0x4c>)
 8003226:	f7ff fc0e 	bl	8002a46 <USBD_Init>
 800322a:	2800      	cmp	r0, #0
 800322c:	d001      	beq.n	8003232 <MX_USB_DEVICE_Init+0x16>
 800322e:	f7fd f9cb 	bl	80005c8 <Error_Handler>
 8003232:	0020      	movs	r0, r4
 8003234:	490d      	ldr	r1, [pc, #52]	; (800326c <MX_USB_DEVICE_Init+0x50>)
 8003236:	f7ff fc20 	bl	8002a7a <USBD_RegisterClass>
 800323a:	2800      	cmp	r0, #0
 800323c:	d001      	beq.n	8003242 <MX_USB_DEVICE_Init+0x26>
 800323e:	f7fd f9c3 	bl	80005c8 <Error_Handler>
 8003242:	0020      	movs	r0, r4
 8003244:	490a      	ldr	r1, [pc, #40]	; (8003270 <MX_USB_DEVICE_Init+0x54>)
 8003246:	f7ff fbad 	bl	80029a4 <USBD_CDC_RegisterInterface>
 800324a:	2800      	cmp	r0, #0
 800324c:	d001      	beq.n	8003252 <MX_USB_DEVICE_Init+0x36>
 800324e:	f7fd f9bb 	bl	80005c8 <Error_Handler>
 8003252:	0020      	movs	r0, r4
 8003254:	f7ff fc1a 	bl	8002a8c <USBD_Start>
 8003258:	2800      	cmp	r0, #0
 800325a:	d001      	beq.n	8003260 <MX_USB_DEVICE_Init+0x44>
 800325c:	f7fd f9b4 	bl	80005c8 <Error_Handler>
 8003260:	bd10      	pop	{r4, pc}
 8003262:	46c0      	nop			; (mov r8, r8)
 8003264:	200001a0 	.word	0x200001a0
 8003268:	2000012c 	.word	0x2000012c
 800326c:	2000000c 	.word	0x2000000c
 8003270:	2000011c 	.word	0x2000011c

08003274 <CDC_DeInit_FS>:
 8003274:	2000      	movs	r0, #0
 8003276:	4770      	bx	lr

08003278 <CDC_Control_FS>:
 8003278:	2000      	movs	r0, #0
 800327a:	4770      	bx	lr

0800327c <CDC_Receive_FS>:
 800327c:	b510      	push	{r4, lr}
 800327e:	4c05      	ldr	r4, [pc, #20]	; (8003294 <CDC_Receive_FS+0x18>)
 8003280:	0001      	movs	r1, r0
 8003282:	0020      	movs	r0, r4
 8003284:	f7ff fba2 	bl	80029cc <USBD_CDC_SetRxBuffer>
 8003288:	0020      	movs	r0, r4
 800328a:	f7ff fbc2 	bl	8002a12 <USBD_CDC_ReceivePacket>
 800328e:	2000      	movs	r0, #0
 8003290:	bd10      	pop	{r4, pc}
 8003292:	46c0      	nop			; (mov r8, r8)
 8003294:	200001a0 	.word	0x200001a0

08003298 <CDC_Init_FS>:
 8003298:	b510      	push	{r4, lr}
 800329a:	4c06      	ldr	r4, [pc, #24]	; (80032b4 <CDC_Init_FS+0x1c>)
 800329c:	2200      	movs	r2, #0
 800329e:	0020      	movs	r0, r4
 80032a0:	4905      	ldr	r1, [pc, #20]	; (80032b8 <CDC_Init_FS+0x20>)
 80032a2:	f7ff fb88 	bl	80029b6 <USBD_CDC_SetTxBuffer>
 80032a6:	0020      	movs	r0, r4
 80032a8:	4904      	ldr	r1, [pc, #16]	; (80032bc <CDC_Init_FS+0x24>)
 80032aa:	f7ff fb8f 	bl	80029cc <USBD_CDC_SetRxBuffer>
 80032ae:	2000      	movs	r0, #0
 80032b0:	bd10      	pop	{r4, pc}
 80032b2:	46c0      	nop			; (mov r8, r8)
 80032b4:	200001a0 	.word	0x200001a0
 80032b8:	20000864 	.word	0x20000864
 80032bc:	20000464 	.word	0x20000464

080032c0 <CDC_Transmit_FS>:
 80032c0:	000a      	movs	r2, r1
 80032c2:	21ae      	movs	r1, #174	; 0xae
 80032c4:	b510      	push	{r4, lr}
 80032c6:	4c08      	ldr	r4, [pc, #32]	; (80032e8 <CDC_Transmit_FS+0x28>)
 80032c8:	0089      	lsls	r1, r1, #2
 80032ca:	0003      	movs	r3, r0
 80032cc:	5860      	ldr	r0, [r4, r1]
 80032ce:	39a4      	subs	r1, #164	; 0xa4
 80032d0:	5841      	ldr	r1, [r0, r1]
 80032d2:	2001      	movs	r0, #1
 80032d4:	2900      	cmp	r1, #0
 80032d6:	d106      	bne.n	80032e6 <CDC_Transmit_FS+0x26>
 80032d8:	0019      	movs	r1, r3
 80032da:	0020      	movs	r0, r4
 80032dc:	f7ff fb6b 	bl	80029b6 <USBD_CDC_SetTxBuffer>
 80032e0:	0020      	movs	r0, r4
 80032e2:	f7ff fb7a 	bl	80029da <USBD_CDC_TransmitPacket>
 80032e6:	bd10      	pop	{r4, pc}
 80032e8:	200001a0 	.word	0x200001a0

080032ec <USBD_FS_DeviceDescriptor>:
 80032ec:	2312      	movs	r3, #18
 80032ee:	4801      	ldr	r0, [pc, #4]	; (80032f4 <USBD_FS_DeviceDescriptor+0x8>)
 80032f0:	800b      	strh	r3, [r1, #0]
 80032f2:	4770      	bx	lr
 80032f4:	20000148 	.word	0x20000148

080032f8 <USBD_FS_LangIDStrDescriptor>:
 80032f8:	2304      	movs	r3, #4
 80032fa:	4801      	ldr	r0, [pc, #4]	; (8003300 <USBD_FS_LangIDStrDescriptor+0x8>)
 80032fc:	800b      	strh	r3, [r1, #0]
 80032fe:	4770      	bx	lr
 8003300:	2000015c 	.word	0x2000015c

08003304 <IntToUnicode>:
 8003304:	2300      	movs	r3, #0
 8003306:	b5f0      	push	{r4, r5, r6, r7, lr}
 8003308:	001f      	movs	r7, r3
 800330a:	0f06      	lsrs	r6, r0, #28
 800330c:	b2f5      	uxtb	r5, r6
 800330e:	002c      	movs	r4, r5
 8003310:	3437      	adds	r4, #55	; 0x37
 8003312:	2e09      	cmp	r6, #9
 8003314:	d800      	bhi.n	8003318 <IntToUnicode+0x14>
 8003316:	3c07      	subs	r4, #7
 8003318:	3301      	adds	r3, #1
 800331a:	b2db      	uxtb	r3, r3
 800331c:	700c      	strb	r4, [r1, #0]
 800331e:	704f      	strb	r7, [r1, #1]
 8003320:	0100      	lsls	r0, r0, #4
 8003322:	3102      	adds	r1, #2
 8003324:	429a      	cmp	r2, r3
 8003326:	d1f0      	bne.n	800330a <IntToUnicode+0x6>
 8003328:	bdf0      	pop	{r4, r5, r6, r7, pc}
	...

0800332c <USBD_FS_SerialStrDescriptor>:
 800332c:	231a      	movs	r3, #26
 800332e:	b570      	push	{r4, r5, r6, lr}
 8003330:	800b      	strh	r3, [r1, #0]
 8003332:	4b0b      	ldr	r3, [pc, #44]	; (8003360 <USBD_FS_SerialStrDescriptor+0x34>)
 8003334:	4c0b      	ldr	r4, [pc, #44]	; (8003364 <USBD_FS_SerialStrDescriptor+0x38>)
 8003336:	6818      	ldr	r0, [r3, #0]
 8003338:	4b0b      	ldr	r3, [pc, #44]	; (8003368 <USBD_FS_SerialStrDescriptor+0x3c>)
 800333a:	681b      	ldr	r3, [r3, #0]
 800333c:	18c0      	adds	r0, r0, r3
 800333e:	2800      	cmp	r0, #0
 8003340:	d00b      	beq.n	800335a <USBD_FS_SerialStrDescriptor+0x2e>
 8003342:	4b0a      	ldr	r3, [pc, #40]	; (800336c <USBD_FS_SerialStrDescriptor+0x40>)
 8003344:	2208      	movs	r2, #8
 8003346:	1ca1      	adds	r1, r4, #2
 8003348:	681d      	ldr	r5, [r3, #0]
 800334a:	f7ff ffdb 	bl	8003304 <IntToUnicode>
 800334e:	0021      	movs	r1, r4
 8003350:	2204      	movs	r2, #4
 8003352:	0028      	movs	r0, r5
 8003354:	3112      	adds	r1, #18
 8003356:	f7ff ffd5 	bl	8003304 <IntToUnicode>
 800335a:	0020      	movs	r0, r4
 800335c:	bd70      	pop	{r4, r5, r6, pc}
 800335e:	46c0      	nop			; (mov r8, r8)
 8003360:	1ff80050 	.word	0x1ff80050
 8003364:	20000160 	.word	0x20000160
 8003368:	1ff80058 	.word	0x1ff80058
 800336c:	1ff80054 	.word	0x1ff80054

08003370 <USBD_FS_ManufacturerStrDescriptor>:
 8003370:	b510      	push	{r4, lr}
 8003372:	4c04      	ldr	r4, [pc, #16]	; (8003384 <USBD_FS_ManufacturerStrDescriptor+0x14>)
 8003374:	000a      	movs	r2, r1
 8003376:	0021      	movs	r1, r4
 8003378:	4803      	ldr	r0, [pc, #12]	; (8003388 <USBD_FS_ManufacturerStrDescriptor+0x18>)
 800337a:	f7ff feeb 	bl	8003154 <USBD_GetString>
 800337e:	0020      	movs	r0, r4
 8003380:	bd10      	pop	{r4, pc}
 8003382:	46c0      	nop			; (mov r8, r8)
 8003384:	20000c64 	.word	0x20000c64
 8003388:	080036cf 	.word	0x080036cf

0800338c <USBD_FS_ProductStrDescriptor>:
 800338c:	b510      	push	{r4, lr}
 800338e:	4c04      	ldr	r4, [pc, #16]	; (80033a0 <USBD_FS_ProductStrDescriptor+0x14>)
 8003390:	000a      	movs	r2, r1
 8003392:	0021      	movs	r1, r4
 8003394:	4803      	ldr	r0, [pc, #12]	; (80033a4 <USBD_FS_ProductStrDescriptor+0x18>)
 8003396:	f7ff fedd 	bl	8003154 <USBD_GetString>
 800339a:	0020      	movs	r0, r4
 800339c:	bd10      	pop	{r4, pc}
 800339e:	46c0      	nop			; (mov r8, r8)
 80033a0:	20000c64 	.word	0x20000c64
 80033a4:	080036e2 	.word	0x080036e2

080033a8 <USBD_FS_ConfigStrDescriptor>:
 80033a8:	b510      	push	{r4, lr}
 80033aa:	4c04      	ldr	r4, [pc, #16]	; (80033bc <USBD_FS_ConfigStrDescriptor+0x14>)
 80033ac:	000a      	movs	r2, r1
 80033ae:	0021      	movs	r1, r4
 80033b0:	4803      	ldr	r0, [pc, #12]	; (80033c0 <USBD_FS_ConfigStrDescriptor+0x18>)
 80033b2:	f7ff fecf 	bl	8003154 <USBD_GetString>
 80033b6:	0020      	movs	r0, r4
 80033b8:	bd10      	pop	{r4, pc}
 80033ba:	46c0      	nop			; (mov r8, r8)
 80033bc:	20000c64 	.word	0x20000c64
 80033c0:	080036f8 	.word	0x080036f8

080033c4 <USBD_FS_InterfaceStrDescriptor>:
 80033c4:	b510      	push	{r4, lr}
 80033c6:	4c04      	ldr	r4, [pc, #16]	; (80033d8 <USBD_FS_InterfaceStrDescriptor+0x14>)
 80033c8:	000a      	movs	r2, r1
 80033ca:	0021      	movs	r1, r4
 80033cc:	4803      	ldr	r0, [pc, #12]	; (80033dc <USBD_FS_InterfaceStrDescriptor+0x18>)
 80033ce:	f7ff fec1 	bl	8003154 <USBD_GetString>
 80033d2:	0020      	movs	r0, r4
 80033d4:	bd10      	pop	{r4, pc}
 80033d6:	46c0      	nop			; (mov r8, r8)
 80033d8:	20000c64 	.word	0x20000c64
 80033dc:	08003703 	.word	0x08003703

080033e0 <USBD_Get_USB_Status>:
 80033e0:	0003      	movs	r3, r0
 80033e2:	2002      	movs	r0, #2
 80033e4:	2b03      	cmp	r3, #3
 80033e6:	d801      	bhi.n	80033ec <USBD_Get_USB_Status+0xc>
 80033e8:	4a01      	ldr	r2, [pc, #4]	; (80033f0 <USBD_Get_USB_Status+0x10>)
 80033ea:	5cd0      	ldrb	r0, [r2, r3]
 80033ec:	4770      	bx	lr
 80033ee:	46c0      	nop			; (mov r8, r8)
 80033f0:	08003711 	.word	0x08003711

080033f4 <HAL_PCD_MspInit>:
 80033f4:	4b09      	ldr	r3, [pc, #36]	; (800341c <HAL_PCD_MspInit+0x28>)
 80033f6:	6802      	ldr	r2, [r0, #0]
 80033f8:	b510      	push	{r4, lr}
 80033fa:	429a      	cmp	r2, r3
 80033fc:	d10d      	bne.n	800341a <HAL_PCD_MspInit+0x26>
 80033fe:	2380      	movs	r3, #128	; 0x80
 8003400:	4a07      	ldr	r2, [pc, #28]	; (8003420 <HAL_PCD_MspInit+0x2c>)
 8003402:	041b      	lsls	r3, r3, #16
 8003404:	6b91      	ldr	r1, [r2, #56]	; 0x38
 8003406:	201f      	movs	r0, #31
 8003408:	430b      	orrs	r3, r1
 800340a:	6393      	str	r3, [r2, #56]	; 0x38
 800340c:	2200      	movs	r2, #0
 800340e:	0011      	movs	r1, r2
 8003410:	f7fd f982 	bl	8000718 <HAL_NVIC_SetPriority>
 8003414:	201f      	movs	r0, #31
 8003416:	f7fd f9a9 	bl	800076c <HAL_NVIC_EnableIRQ>
 800341a:	bd10      	pop	{r4, pc}
 800341c:	40005c00 	.word	0x40005c00
 8003420:	40021000 	.word	0x40021000

08003424 <HAL_PCD_SetupStageCallback>:
 8003424:	23ac      	movs	r3, #172	; 0xac
 8003426:	b510      	push	{r4, lr}
 8003428:	009b      	lsls	r3, r3, #2
 800342a:	18c1      	adds	r1, r0, r3
 800342c:	3340      	adds	r3, #64	; 0x40
 800342e:	58c0      	ldr	r0, [r0, r3]
 8003430:	f7ff fb48 	bl	8002ac4 <USBD_LL_SetupStage>
 8003434:	bd10      	pop	{r4, pc}

08003436 <HAL_PCD_DataOutStageCallback>:
 8003436:	2328      	movs	r3, #40	; 0x28
 8003438:	434b      	muls	r3, r1
 800343a:	18c3      	adds	r3, r0, r3
 800343c:	337d      	adds	r3, #125	; 0x7d
 800343e:	33ff      	adds	r3, #255	; 0xff
 8003440:	681a      	ldr	r2, [r3, #0]
 8003442:	23bc      	movs	r3, #188	; 0xbc
 8003444:	b510      	push	{r4, lr}
 8003446:	009b      	lsls	r3, r3, #2
 8003448:	58c0      	ldr	r0, [r0, r3]
 800344a:	f7ff fb6d 	bl	8002b28 <USBD_LL_DataOutStage>
 800344e:	bd10      	pop	{r4, pc}

08003450 <HAL_PCD_DataInStageCallback>:
 8003450:	2328      	movs	r3, #40	; 0x28
 8003452:	434b      	muls	r3, r1
 8003454:	18c3      	adds	r3, r0, r3
 8003456:	6bda      	ldr	r2, [r3, #60]	; 0x3c
 8003458:	23bc      	movs	r3, #188	; 0xbc
 800345a:	b510      	push	{r4, lr}
 800345c:	009b      	lsls	r3, r3, #2
 800345e:	58c0      	ldr	r0, [r0, r3]
 8003460:	f7ff fba8 	bl	8002bb4 <USBD_LL_DataInStage>
 8003464:	bd10      	pop	{r4, pc}

08003466 <HAL_PCD_SOFCallback>:
 8003466:	23bc      	movs	r3, #188	; 0xbc
 8003468:	b510      	push	{r4, lr}
 800346a:	009b      	lsls	r3, r3, #2
 800346c:	58c0      	ldr	r0, [r0, r3]
 800346e:	f7ff fc4b 	bl	8002d08 <USBD_LL_SOF>
 8003472:	bd10      	pop	{r4, pc}

08003474 <HAL_PCD_ResetCallback>:
 8003474:	6883      	ldr	r3, [r0, #8]
 8003476:	b570      	push	{r4, r5, r6, lr}
 8003478:	0004      	movs	r4, r0
 800347a:	2b02      	cmp	r3, #2
 800347c:	d001      	beq.n	8003482 <HAL_PCD_ResetCallback+0xe>
 800347e:	f7fd f8a3 	bl	80005c8 <Error_Handler>
 8003482:	25bc      	movs	r5, #188	; 0xbc
 8003484:	00ad      	lsls	r5, r5, #2
 8003486:	2101      	movs	r1, #1
 8003488:	5960      	ldr	r0, [r4, r5]
 800348a:	f7ff fc22 	bl	8002cd2 <USBD_LL_SetSpeed>
 800348e:	5960      	ldr	r0, [r4, r5]
 8003490:	f7ff fbf5 	bl	8002c7e <USBD_LL_Reset>
 8003494:	bd70      	pop	{r4, r5, r6, pc}
	...

08003498 <HAL_PCD_SuspendCallback>:
 8003498:	23bc      	movs	r3, #188	; 0xbc
 800349a:	b510      	push	{r4, lr}
 800349c:	0004      	movs	r4, r0
 800349e:	009b      	lsls	r3, r3, #2
 80034a0:	58c0      	ldr	r0, [r0, r3]
 80034a2:	f7ff fc19 	bl	8002cd8 <USBD_LL_Suspend>
 80034a6:	69a3      	ldr	r3, [r4, #24]
 80034a8:	2b00      	cmp	r3, #0
 80034aa:	d004      	beq.n	80034b6 <HAL_PCD_SuspendCallback+0x1e>
 80034ac:	2306      	movs	r3, #6
 80034ae:	4a02      	ldr	r2, [pc, #8]	; (80034b8 <HAL_PCD_SuspendCallback+0x20>)
 80034b0:	6911      	ldr	r1, [r2, #16]
 80034b2:	430b      	orrs	r3, r1
 80034b4:	6113      	str	r3, [r2, #16]
 80034b6:	bd10      	pop	{r4, pc}
 80034b8:	e000ed00 	.word	0xe000ed00

080034bc <HAL_PCD_ResumeCallback>:
 80034bc:	6983      	ldr	r3, [r0, #24]
 80034be:	b510      	push	{r4, lr}
 80034c0:	0004      	movs	r4, r0
 80034c2:	2b00      	cmp	r3, #0
 80034c4:	d006      	beq.n	80034d4 <HAL_PCD_ResumeCallback+0x18>
 80034c6:	2106      	movs	r1, #6
 80034c8:	4a05      	ldr	r2, [pc, #20]	; (80034e0 <HAL_PCD_ResumeCallback+0x24>)
 80034ca:	6913      	ldr	r3, [r2, #16]
 80034cc:	438b      	bics	r3, r1
 80034ce:	6113      	str	r3, [r2, #16]
 80034d0:	f7fd f814 	bl	80004fc <SystemClock_Config>
 80034d4:	23bc      	movs	r3, #188	; 0xbc
 80034d6:	009b      	lsls	r3, r3, #2
 80034d8:	58e0      	ldr	r0, [r4, r3]
 80034da:	f7ff fc09 	bl	8002cf0 <USBD_LL_Resume>
 80034de:	bd10      	pop	{r4, pc}
 80034e0:	e000ed00 	.word	0xe000ed00

080034e4 <USBD_LL_Init>:
 80034e4:	23bc      	movs	r3, #188	; 0xbc
 80034e6:	b570      	push	{r4, r5, r6, lr}
 80034e8:	0004      	movs	r4, r0
 80034ea:	481c      	ldr	r0, [pc, #112]	; (800355c <USBD_LL_Init+0x78>)
 80034ec:	009b      	lsls	r3, r3, #2
 80034ee:	50c4      	str	r4, [r0, r3]
 80034f0:	4b1b      	ldr	r3, [pc, #108]	; (8003560 <USBD_LL_Init+0x7c>)
 80034f2:	25b0      	movs	r5, #176	; 0xb0
 80034f4:	6003      	str	r3, [r0, #0]
 80034f6:	2308      	movs	r3, #8
 80034f8:	6043      	str	r3, [r0, #4]
 80034fa:	3b06      	subs	r3, #6
 80034fc:	6083      	str	r3, [r0, #8]
 80034fe:	6103      	str	r3, [r0, #16]
 8003500:	2300      	movs	r3, #0
 8003502:	00ad      	lsls	r5, r5, #2
 8003504:	5160      	str	r0, [r4, r5]
 8003506:	6183      	str	r3, [r0, #24]
 8003508:	61c3      	str	r3, [r0, #28]
 800350a:	6203      	str	r3, [r0, #32]
 800350c:	f7fd f954 	bl	80007b8 <HAL_PCD_Init>
 8003510:	2800      	cmp	r0, #0
 8003512:	d001      	beq.n	8003518 <USBD_LL_Init+0x34>
 8003514:	f7fd f858 	bl	80005c8 <Error_Handler>
 8003518:	2200      	movs	r2, #0
 800351a:	5960      	ldr	r0, [r4, r5]
 800351c:	0011      	movs	r1, r2
 800351e:	2318      	movs	r3, #24
 8003520:	f7fd ffa3 	bl	800146a <HAL_PCDEx_PMAConfig>
 8003524:	5960      	ldr	r0, [r4, r5]
 8003526:	2358      	movs	r3, #88	; 0x58
 8003528:	2200      	movs	r2, #0
 800352a:	2180      	movs	r1, #128	; 0x80
 800352c:	f7fd ff9d 	bl	800146a <HAL_PCDEx_PMAConfig>
 8003530:	5960      	ldr	r0, [r4, r5]
 8003532:	23c0      	movs	r3, #192	; 0xc0
 8003534:	2200      	movs	r2, #0
 8003536:	2181      	movs	r1, #129	; 0x81
 8003538:	f7fd ff97 	bl	800146a <HAL_PCDEx_PMAConfig>
 800353c:	2388      	movs	r3, #136	; 0x88
 800353e:	5960      	ldr	r0, [r4, r5]
 8003540:	2200      	movs	r2, #0
 8003542:	2101      	movs	r1, #1
 8003544:	005b      	lsls	r3, r3, #1
 8003546:	f7fd ff90 	bl	800146a <HAL_PCDEx_PMAConfig>
 800354a:	2380      	movs	r3, #128	; 0x80
 800354c:	5960      	ldr	r0, [r4, r5]
 800354e:	2200      	movs	r2, #0
 8003550:	2182      	movs	r1, #130	; 0x82
 8003552:	005b      	lsls	r3, r3, #1
 8003554:	f7fd ff89 	bl	800146a <HAL_PCDEx_PMAConfig>
 8003558:	2000      	movs	r0, #0
 800355a:	bd70      	pop	{r4, r5, r6, pc}
 800355c:	20000e64 	.word	0x20000e64
 8003560:	40005c00 	.word	0x40005c00

08003564 <USBD_LL_Start>:
 8003564:	23b0      	movs	r3, #176	; 0xb0
 8003566:	b510      	push	{r4, lr}
 8003568:	009b      	lsls	r3, r3, #2
 800356a:	58c0      	ldr	r0, [r0, r3]
 800356c:	f7fd f98e 	bl	800088c <HAL_PCD_Start>
 8003570:	f7ff ff36 	bl	80033e0 <USBD_Get_USB_Status>
 8003574:	bd10      	pop	{r4, pc}

08003576 <USBD_LL_OpenEP>:
 8003576:	b510      	push	{r4, lr}
 8003578:	0014      	movs	r4, r2
 800357a:	001a      	movs	r2, r3
 800357c:	0023      	movs	r3, r4
 800357e:	24b0      	movs	r4, #176	; 0xb0
 8003580:	00a4      	lsls	r4, r4, #2
 8003582:	5900      	ldr	r0, [r0, r4]
 8003584:	f7fd fe7c 	bl	8001280 <HAL_PCD_EP_Open>
 8003588:	f7ff ff2a 	bl	80033e0 <USBD_Get_USB_Status>
 800358c:	bd10      	pop	{r4, pc}

0800358e <USBD_LL_CloseEP>:
 800358e:	23b0      	movs	r3, #176	; 0xb0
 8003590:	b510      	push	{r4, lr}
 8003592:	009b      	lsls	r3, r3, #2
 8003594:	58c0      	ldr	r0, [r0, r3]
 8003596:	f7fd fea0 	bl	80012da <HAL_PCD_EP_Close>
 800359a:	f7ff ff21 	bl	80033e0 <USBD_Get_USB_Status>
 800359e:	bd10      	pop	{r4, pc}

080035a0 <USBD_LL_StallEP>:
 80035a0:	23b0      	movs	r3, #176	; 0xb0
 80035a2:	b510      	push	{r4, lr}
 80035a4:	009b      	lsls	r3, r3, #2
 80035a6:	58c0      	ldr	r0, [r0, r3]
 80035a8:	f7fd ff05 	bl	80013b6 <HAL_PCD_EP_SetStall>
 80035ac:	f7ff ff18 	bl	80033e0 <USBD_Get_USB_Status>
 80035b0:	bd10      	pop	{r4, pc}

080035b2 <USBD_LL_ClearStallEP>:
 80035b2:	23b0      	movs	r3, #176	; 0xb0
 80035b4:	b510      	push	{r4, lr}
 80035b6:	009b      	lsls	r3, r3, #2
 80035b8:	58c0      	ldr	r0, [r0, r3]
 80035ba:	f7fd ff28 	bl	800140e <HAL_PCD_EP_ClrStall>
 80035be:	f7ff ff0f 	bl	80033e0 <USBD_Get_USB_Status>
 80035c2:	bd10      	pop	{r4, pc}

080035c4 <USBD_LL_IsStallEP>:
 80035c4:	23b0      	movs	r3, #176	; 0xb0
 80035c6:	b24a      	sxtb	r2, r1
 80035c8:	009b      	lsls	r3, r3, #2
 80035ca:	58c3      	ldr	r3, [r0, r3]
 80035cc:	2a00      	cmp	r2, #0
 80035ce:	da07      	bge.n	80035e0 <USBD_LL_IsStallEP+0x1c>
 80035d0:	227f      	movs	r2, #127	; 0x7f
 80035d2:	4011      	ands	r1, r2
 80035d4:	3101      	adds	r1, #1
 80035d6:	3a57      	subs	r2, #87	; 0x57
 80035d8:	434a      	muls	r2, r1
 80035da:	189b      	adds	r3, r3, r2
 80035dc:	7898      	ldrb	r0, [r3, #2]
 80035de:	4770      	bx	lr
 80035e0:	2228      	movs	r2, #40	; 0x28
 80035e2:	434a      	muls	r2, r1
 80035e4:	189b      	adds	r3, r3, r2
 80035e6:	336b      	adds	r3, #107	; 0x6b
 80035e8:	33ff      	adds	r3, #255	; 0xff
 80035ea:	7818      	ldrb	r0, [r3, #0]
 80035ec:	e7f7      	b.n	80035de <USBD_LL_IsStallEP+0x1a>

080035ee <USBD_LL_SetUSBAddress>:
 80035ee:	23b0      	movs	r3, #176	; 0xb0
 80035f0:	b510      	push	{r4, lr}
 80035f2:	009b      	lsls	r3, r3, #2
 80035f4:	58c0      	ldr	r0, [r0, r3]
 80035f6:	f7fd f95c 	bl	80008b2 <HAL_PCD_SetAddress>
 80035fa:	f7ff fef1 	bl	80033e0 <USBD_Get_USB_Status>
 80035fe:	bd10      	pop	{r4, pc}

08003600 <USBD_LL_Transmit>:
 8003600:	b510      	push	{r4, lr}
 8003602:	24b0      	movs	r4, #176	; 0xb0
 8003604:	00a4      	lsls	r4, r4, #2
 8003606:	5900      	ldr	r0, [r0, r4]
 8003608:	f7fd feb8 	bl	800137c <HAL_PCD_EP_Transmit>
 800360c:	f7ff fee8 	bl	80033e0 <USBD_Get_USB_Status>
 8003610:	bd10      	pop	{r4, pc}

08003612 <USBD_LL_PrepareReceive>:
 8003612:	b510      	push	{r4, lr}
 8003614:	24b0      	movs	r4, #176	; 0xb0
 8003616:	00a4      	lsls	r4, r4, #2
 8003618:	5900      	ldr	r0, [r0, r4]
 800361a:	f7fd fe85 	bl	8001328 <HAL_PCD_EP_Receive>
 800361e:	f7ff fedf 	bl	80033e0 <USBD_Get_USB_Status>
 8003622:	bd10      	pop	{r4, pc}

08003624 <USBD_LL_GetRxDataSize>:
 8003624:	23b0      	movs	r3, #176	; 0xb0
 8003626:	b510      	push	{r4, lr}
 8003628:	009b      	lsls	r3, r3, #2
 800362a:	58c0      	ldr	r0, [r0, r3]
 800362c:	f7fd fe9d 	bl	800136a <HAL_PCD_EP_GetRxCount>
 8003630:	bd10      	pop	{r4, pc}
	...

08003634 <USBD_static_malloc>:
 8003634:	4800      	ldr	r0, [pc, #0]	; (8003638 <USBD_static_malloc+0x4>)
 8003636:	4770      	bx	lr
 8003638:	20001158 	.word	0x20001158

0800363c <USBD_static_free>:
 800363c:	4770      	bx	lr

0800363e <memset>:
 800363e:	0003      	movs	r3, r0
 8003640:	1882      	adds	r2, r0, r2
 8003642:	4293      	cmp	r3, r2
 8003644:	d100      	bne.n	8003648 <memset+0xa>
 8003646:	4770      	bx	lr
 8003648:	7019      	strb	r1, [r3, #0]
 800364a:	3301      	adds	r3, #1
 800364c:	e7f9      	b.n	8003642 <memset+0x4>
	...

08003650 <__libc_init_array>:
 8003650:	b570      	push	{r4, r5, r6, lr}
 8003652:	2600      	movs	r6, #0
 8003654:	4c0c      	ldr	r4, [pc, #48]	; (8003688 <__libc_init_array+0x38>)
 8003656:	4d0d      	ldr	r5, [pc, #52]	; (800368c <__libc_init_array+0x3c>)
 8003658:	1b64      	subs	r4, r4, r5
 800365a:	10a4      	asrs	r4, r4, #2
 800365c:	42a6      	cmp	r6, r4
 800365e:	d109      	bne.n	8003674 <__libc_init_array+0x24>
 8003660:	2600      	movs	r6, #0
 8003662:	f000 f819 	bl	8003698 <_init>
 8003666:	4c0a      	ldr	r4, [pc, #40]	; (8003690 <__libc_init_array+0x40>)
 8003668:	4d0a      	ldr	r5, [pc, #40]	; (8003694 <__libc_init_array+0x44>)
 800366a:	1b64      	subs	r4, r4, r5
 800366c:	10a4      	asrs	r4, r4, #2
 800366e:	42a6      	cmp	r6, r4
 8003670:	d105      	bne.n	800367e <__libc_init_array+0x2e>
 8003672:	bd70      	pop	{r4, r5, r6, pc}
 8003674:	00b3      	lsls	r3, r6, #2
 8003676:	58eb      	ldr	r3, [r5, r3]
 8003678:	4798      	blx	r3
 800367a:	3601      	adds	r6, #1
 800367c:	e7ee      	b.n	800365c <__libc_init_array+0xc>
 800367e:	00b3      	lsls	r3, r6, #2
 8003680:	58eb      	ldr	r3, [r5, r3]
 8003682:	4798      	blx	r3
 8003684:	3601      	adds	r6, #1
 8003686:	e7f2      	b.n	800366e <__libc_init_array+0x1e>
 8003688:	08003720 	.word	0x08003720
 800368c:	08003720 	.word	0x08003720
 8003690:	08003724 	.word	0x08003724
 8003694:	08003720 	.word	0x08003720

08003698 <_init>:
 8003698:	b5f8      	push	{r3, r4, r5, r6, r7, lr}
 800369a:	46c0      	nop			; (mov r8, r8)
 800369c:	bcf8      	pop	{r3, r4, r5, r6, r7}
 800369e:	bc08      	pop	{r3}
 80036a0:	469e      	mov	lr, r3
 80036a2:	4770      	bx	lr

080036a4 <_fini>:
 80036a4:	b5f8      	push	{r3, r4, r5, r6, r7, lr}
 80036a6:	46c0      	nop			; (mov r8, r8)
 80036a8:	bcf8      	pop	{r3, r4, r5, r6, r7}
 80036aa:	bc08      	pop	{r3}
 80036ac:	469e      	mov	lr, r3
 80036ae:	4770      	bx	lr
